
========================================================================

** ELF Header Information

    File Name: .\MMC.axf

    Machine class: ELFCLASS32 (32-bit)
    Data encoding: ELFDATA2LSB (Little endian)
    Header version: EV_CURRENT (Current version)
    Operating System ABI: none
    ABI Version: 0
    File Type: ET_EXEC (Executable) (2)
    Machine: EM_ARM (ARM)

    Image Entry point: Not specified
    Flags: EF_ARM_ABI_FLOAT_SOFT (0x05000200)

    ARM ELF revision: 5 (ABI version 2)

    Conforms to Soft float procedure-call standard

    Built with
    Component: ARM Compiler 5.06 update 7 (build 960) Tool: armasm [4d35fa]
    Component: ARM Compiler 5.06 update 7 (build 960) Tool: armlink [4d3601]

    Header size: 52 bytes (0x34)
    Program header entry size: 32 bytes (0x20)
    Section header entry size: 40 bytes (0x28)

    Program header entries: 1
    Section header entries: 16

    Program header offset: 59588 (0x0000e8c4)
    Section header offset: 59620 (0x0000e8e4)

    Section header string table index: 15

========================================================================

** Program header #0

    Type          : PT_LOAD (1)
    File Offset   : 52 (0x34)
    Virtual Addr  : 0x00000000
    Physical Addr : 0x00000000
    Size in file  : 12664 bytes (0x3178)
    Size in memory: 23584 bytes (0x5c20)
    Flags         : PF_X + PF_W + PF_R (0x7)
    Alignment     : 16


========================================================================

** Section #1

    Name        : ER_IROM1
    Type        : SHT_PROGBITS (0x00000001)
    Flags       : SHF_ALLOC + SHF_EXECINSTR (0x00000006)
    Addr        : 0x00000000
    File Offset : 52 (0x34)
    Size        : 12624 bytes (0x3150)
    Link        : SHN_UNDEF
    Info        : 0
    Alignment   : 4
    Entry Size  : 0

    $d.realdata
    RESET
    __Vectors
        0x00000000:    20002ad0    .*.     DCD    536881872
        0x00000004:    00000135    5...    DCD    309
        0x00000008:    00000000    ....    DCD    0
        0x0000000c:    00000000    ....    DCD    0
        0x00000010:    00000000    ....    DCD    0
        0x00000014:    00000000    ....    DCD    0
        0x00000018:    00000000    ....    DCD    0
        0x0000001c:    00000000    ....    DCD    0
        0x00000020:    00000000    ....    DCD    0
        0x00000024:    00000000    ....    DCD    0
        0x00000028:    00000000    ....    DCD    0
        0x0000002c:    00000000    ....    DCD    0
        0x00000030:    00000000    ....    DCD    0
        0x00000034:    00000000    ....    DCD    0
        0x00000038:    00000000    ....    DCD    0
        0x0000003c:    00000000    ....    DCD    0
        0x00000040:    0000014f    O...    DCD    335
        0x00000044:    00000147    G...    DCD    327
        0x00000048:    0000013f    ?...    DCD    319
        0x0000004c:    00000157    W...    DCD    343
        0x00000050:    000001d7    ....    DCD    471
        0x00000054:    000001cf    ....    DCD    463
        0x00000058:    000001c7    ....    DCD    455
        0x0000005c:    000001bf    ....    DCD    447
        0x00000060:    000001b7    ....    DCD    439
        0x00000064:    000001af    ....    DCD    431
        0x00000068:    000001a7    ....    DCD    423
        0x0000006c:    0000019f    ....    DCD    415
        0x00000070:    00000197    ....    DCD    407
        0x00000074:    0000018f    ....    DCD    399
        0x00000078:    00000187    ....    DCD    391
        0x0000007c:    0000017f    ....    DCD    383
        0x00000080:    00000177    w...    DCD    375
        0x00000084:    0000016f    o...    DCD    367
        0x00000088:    00000167    g...    DCD    359
        0x0000008c:    0000015f    _...    DCD    351
    $t
    !!!main
    __main
        0x00000090:    f000f802    ....    BL       __scatterload ; 0x98
        0x00000094:    f000f83e    ..>.    BL       __rt_entry ; 0x114
    !!!scatter
    __scatterload
    __scatterload_rt2
    __scatterload_rt2_thumb_only
        0x00000098:    a00c        ..      ADR      r0,{pc}+0x34 ; 0xcc
        0x0000009a:    c830        0.      LDM      r0!,{r4,r5}
        0x0000009c:    3808        .8      SUBS     r0,r0,#8
        0x0000009e:    1824        $.      ADDS     r4,r4,r0
        0x000000a0:    182d        -.      ADDS     r5,r5,r0
        0x000000a2:    46a2        .F      MOV      r10,r4
        0x000000a4:    1e67        g.      SUBS     r7,r4,#1
        0x000000a6:    46ab        .F      MOV      r11,r5
    __scatterload_null
        0x000000a8:    4654        TF      MOV      r4,r10
        0x000000aa:    465d        ]F      MOV      r5,r11
        0x000000ac:    42ac        .B      CMP      r4,r5
        0x000000ae:    d101        ..      BNE      0xb4 ; __scatterload_null + 12
        0x000000b0:    f000f830    ..0.    BL       __rt_entry ; 0x114
        0x000000b4:    467e        ~F      MOV      r6,pc
        0x000000b6:    3e0f        .>      SUBS     r6,r6,#0xf
        0x000000b8:    cc0f        ..      LDM      r4!,{r0-r3}
        0x000000ba:    46b6        .F      MOV      lr,r6
        0x000000bc:    2601        .&      MOVS     r6,#1
        0x000000be:    4233        3B      TST      r3,r6
        0x000000c0:    d000        ..      BEQ      0xc4 ; __scatterload_null + 28
        0x000000c2:    1afb        ..      SUBS     r3,r7,r3
        0x000000c4:    46a2        .F      MOV      r10,r4
        0x000000c6:    46ab        .F      MOV      r11,r5
        0x000000c8:    4333        3C      ORRS     r3,r3,r6
        0x000000ca:    4718        .G      BX       r3
    $d
        0x000000cc:    00003064    d0..    DCD    12388
        0x000000d0:    00003084    .0..    DCD    12420
    $t
    !!handler_copy
    __scatterload_copy
        0x000000d4:    3a10        .:      SUBS     r2,r2,#0x10
        0x000000d6:    d302        ..      BCC      0xde ; __scatterload_copy + 10
        0x000000d8:    c878        x.      LDM      r0!,{r3-r6}
        0x000000da:    c178        x.      STM      r1!,{r3-r6}
        0x000000dc:    d8fa        ..      BHI      __scatterload_copy ; 0xd4
        0x000000de:    0752        R.      LSLS     r2,r2,#29
        0x000000e0:    d301        ..      BCC      0xe6 ; __scatterload_copy + 18
        0x000000e2:    c830        0.      LDM      r0!,{r4,r5}
        0x000000e4:    c130        0.      STM      r1!,{r4,r5}
        0x000000e6:    d501        ..      BPL      0xec ; __scatterload_copy + 24
        0x000000e8:    6804        .h      LDR      r4,[r0,#0]
        0x000000ea:    600c        .`      STR      r4,[r1,#0]
        0x000000ec:    4770        pG      BX       lr
        0x000000ee:    0000        ..      MOVS     r0,r0
    !!handler_zi
    __scatterload_zeroinit
        0x000000f0:    2300        .#      MOVS     r3,#0
        0x000000f2:    2400        .$      MOVS     r4,#0
        0x000000f4:    2500        .%      MOVS     r5,#0
        0x000000f6:    2600        .&      MOVS     r6,#0
        0x000000f8:    3a10        .:      SUBS     r2,r2,#0x10
        0x000000fa:    d301        ..      BCC      0x100 ; __scatterload_zeroinit + 16
        0x000000fc:    c178        x.      STM      r1!,{r3-r6}
        0x000000fe:    d8fb        ..      BHI      0xf8 ; __scatterload_zeroinit + 8
        0x00000100:    0752        R.      LSLS     r2,r2,#29
        0x00000102:    d300        ..      BCC      0x106 ; __scatterload_zeroinit + 22
        0x00000104:    c130        0.      STM      r1!,{r4,r5}
        0x00000106:    d500        ..      BPL      0x10a ; __scatterload_zeroinit + 26
        0x00000108:    600b        .`      STR      r3,[r1,#0]
        0x0000010a:    4770        pG      BX       lr
    .ARM.Collect$$libinit$$00000000
    __rt_lib_init
        0x0000010c:    b51f        ..      PUSH     {r0-r4,lr}
    .ARM.Collect$$libinit$$00000002
    .ARM.Collect$$libinit$$00000004
    .ARM.Collect$$libinit$$0000000A
    .ARM.Collect$$libinit$$0000000C
    .ARM.Collect$$libinit$$0000000E
    .ARM.Collect$$libinit$$00000011
    .ARM.Collect$$libinit$$00000013
    .ARM.Collect$$libinit$$00000015
    .ARM.Collect$$libinit$$00000017
    .ARM.Collect$$libinit$$00000019
    .ARM.Collect$$libinit$$0000001B
    .ARM.Collect$$libinit$$0000001D
    .ARM.Collect$$libinit$$0000001F
    .ARM.Collect$$libinit$$00000021
    .ARM.Collect$$libinit$$00000023
    .ARM.Collect$$libinit$$00000025
    .ARM.Collect$$libinit$$0000002C
    .ARM.Collect$$libinit$$0000002E
    .ARM.Collect$$libinit$$00000030
    .ARM.Collect$$libinit$$00000032
    .ARM.Collect$$libinit$$00000033
    __rt_lib_init_alloca_1
    __rt_lib_init_argv_1
    __rt_lib_init_atexit_1
    __rt_lib_init_clock_1
    __rt_lib_init_cpp_1
    __rt_lib_init_exceptions_1
    __rt_lib_init_fp_1
    __rt_lib_init_fp_trap_1
    __rt_lib_init_getenv_1
    __rt_lib_init_heap_1
    __rt_lib_init_lc_collate_1
    __rt_lib_init_lc_ctype_1
    __rt_lib_init_lc_monetary_1
    __rt_lib_init_lc_numeric_1
    __rt_lib_init_lc_time_1
    __rt_lib_init_preinit_1
    __rt_lib_init_rand_1
    __rt_lib_init_return
    __rt_lib_init_signal_1
    __rt_lib_init_stdio_1
    __rt_lib_init_user_alloc_1
        0x0000010e:    bd1f        ..      POP      {r0-r4,pc}
    .ARM.Collect$$libshutdown$$00000000
    __rt_lib_shutdown
        0x00000110:    b510        ..      PUSH     {r4,lr}
    .ARM.Collect$$libshutdown$$00000002
    .ARM.Collect$$libshutdown$$00000004
    .ARM.Collect$$libshutdown$$00000006
    .ARM.Collect$$libshutdown$$00000009
    .ARM.Collect$$libshutdown$$0000000C
    .ARM.Collect$$libshutdown$$0000000E
    .ARM.Collect$$libshutdown$$00000011
    .ARM.Collect$$libshutdown$$00000012
    __rt_lib_shutdown_cpp_1
    __rt_lib_shutdown_fini_1
    __rt_lib_shutdown_fp_trap_1
    __rt_lib_shutdown_heap_1
    __rt_lib_shutdown_return
    __rt_lib_shutdown_signal_1
    __rt_lib_shutdown_stdio_1
    __rt_lib_shutdown_user_alloc_1
        0x00000112:    bd10        ..      POP      {r4,pc}
    .ARM.Collect$$rtentry$$00000000
    .ARM.Collect$$rtentry$$00000002
    .ARM.Collect$$rtentry$$00000004
    __rt_entry
    __rt_entry_presh_1
    __rt_entry_sh
        0x00000114:    f000fd76    ..v.    BL       __user_setup_stackheap ; 0xc04
        0x00000118:    4611        .F      MOV      r1,r2
    .ARM.Collect$$rtentry$$00000009
    .ARM.Collect$$rtentry$$0000000A
    __rt_entry_li
    __rt_entry_postsh_1
        0x0000011a:    f7fffff7    ....    BL       __rt_lib_init ; 0x10c
    .ARM.Collect$$rtentry$$0000000C
    .ARM.Collect$$rtentry$$0000000D
    __rt_entry_main
    __rt_entry_postli_1
        0x0000011e:    f002fdd7    ....    BL       main ; 0x2cd0
        0x00000122:    f000fd8e    ....    BL       exit ; 0xc42
    .ARM.Collect$$rtexit$$00000000
    __rt_exit
        0x00000126:    b403        ..      PUSH     {r0,r1}
    .ARM.Collect$$rtexit$$00000002
    .ARM.Collect$$rtexit$$00000003
    __rt_exit_ls
    __rt_exit_prels_1
        0x00000128:    f7fffff2    ....    BL       __rt_lib_shutdown ; 0x110
    .ARM.Collect$$rtexit$$00000004
    __rt_exit_exit
        0x0000012c:    bc03        ..      POP      {r0,r1}
        0x0000012e:    f000fdc3    ....    BL       _sys_exit ; 0xcb8
        0x00000132:    0000        ..      MOVS     r0,r0
    .text
    Reset_Handler
        0x00000134:    482d        -H      LDR      r0,[pc,#180] ; [0x1ec] = 0x91
        0x00000136:    4680        .F      MOV      r8,r0
        0x00000138:    46c1        .F      MOV      r9,r8
        0x0000013a:    f7ffffa9    ....    BL       __main ; 0x90
    Demodulated_Data_Dump_Done
        0x0000013e:    b507        ..      PUSH     {r0-r2,lr}
        0x00000140:    f002fc78    ..x.    BL       UARTFM_Demodulated_Data_Dump_Done_Handler ; 0x2a34
        0x00000144:    bd07        ..      POP      {r0-r2,pc}
    FM_IQ_Dump_Done
        0x00000146:    b507        ..      PUSH     {r0-r2,lr}
        0x00000148:    f002fcaa    ....    BL       UARTFM_IQ_Dump_Done_Handler ; 0x2aa0
        0x0000014c:    bd07        ..      POP      {r0-r2,pc}
    UART_Handler
        0x0000014e:    b507        ..      PUSH     {r0-r2,lr}
        0x00000150:    f002fcdc    ....    BL       UARTHandle ; 0x2b0c
        0x00000154:    bd07        ..      POP      {r0-r2,pc}
    RSSI_Scan_Done
        0x00000156:    b507        ..      PUSH     {r0-r2,lr}
        0x00000158:    f002fa82    ....    BL       RSSIScanHandler ; 0x2660
        0x0000015c:    bd07        ..      POP      {r0-r2,pc}
    KEY0_Handler
        0x0000015e:    b507        ..      PUSH     {r0-r2,lr}
        0x00000160:    f002f910    ....    BL       KEY0 ; 0x2384
        0x00000164:    bd07        ..      POP      {r0-r2,pc}
    KEY1_Handler
        0x00000166:    b507        ..      PUSH     {r0-r2,lr}
        0x00000168:    f002f922    ..".    BL       KEY1 ; 0x23b0
        0x0000016c:    bd07        ..      POP      {r0-r2,pc}
    KEY2_Handler
        0x0000016e:    b507        ..      PUSH     {r0-r2,lr}
        0x00000170:    f002f9c4    ....    BL       KEY2 ; 0x24fc
        0x00000174:    bd07        ..      POP      {r0-r2,pc}
    KEY3_Handler
        0x00000176:    b507        ..      PUSH     {r0-r2,lr}
        0x00000178:    f002f9d6    ....    BL       KEY3 ; 0x2528
        0x0000017c:    bd07        ..      POP      {r0-r2,pc}
    KEY4_Handler
        0x0000017e:    b507        ..      PUSH     {r0-r2,lr}
        0x00000180:    f002f9e8    ....    BL       KEY4 ; 0x2554
        0x00000184:    bd07        ..      POP      {r0-r2,pc}
    KEY5_Handler
        0x00000186:    b507        ..      PUSH     {r0-r2,lr}
        0x00000188:    f002f9fa    ....    BL       KEY5 ; 0x2580
        0x0000018c:    bd07        ..      POP      {r0-r2,pc}
    KEY6_Handler
        0x0000018e:    b507        ..      PUSH     {r0-r2,lr}
        0x00000190:    f002fa0c    ....    BL       KEY6 ; 0x25ac
        0x00000194:    bd07        ..      POP      {r0-r2,pc}
    KEY7_Handler
        0x00000196:    b507        ..      PUSH     {r0-r2,lr}
        0x00000198:    f002fa1e    ....    BL       KEY7 ; 0x25d8
        0x0000019c:    bd07        ..      POP      {r0-r2,pc}
    KEY8_Handler
        0x0000019e:    b507        ..      PUSH     {r0-r2,lr}
        0x000001a0:    f002fa30    ..0.    BL       KEY8 ; 0x2604
        0x000001a4:    bd07        ..      POP      {r0-r2,pc}
    KEY9_Handler
        0x000001a6:    b507        ..      PUSH     {r0-r2,lr}
        0x000001a8:    f002fa42    ..B.    BL       KEY9 ; 0x2630
        0x000001ac:    bd07        ..      POP      {r0-r2,pc}
    KEY10_Handler
        0x000001ae:    b507        ..      PUSH     {r0-r2,lr}
        0x000001b0:    f002f914    ....    BL       KEY10 ; 0x23dc
        0x000001b4:    bd07        ..      POP      {r0-r2,pc}
    KEY11_Handler
        0x000001b6:    b507        ..      PUSH     {r0-r2,lr}
        0x000001b8:    f002f928    ..(.    BL       KEY11 ; 0x240c
        0x000001bc:    bd07        ..      POP      {r0-r2,pc}
    KEY12_Handler
        0x000001be:    b507        ..      PUSH     {r0-r2,lr}
        0x000001c0:    f002f93c    ..<.    BL       KEY12 ; 0x243c
        0x000001c4:    bd07        ..      POP      {r0-r2,pc}
    KEY13_Handler
        0x000001c6:    b507        ..      PUSH     {r0-r2,lr}
        0x000001c8:    f002f950    ..P.    BL       KEY13 ; 0x246c
        0x000001cc:    bd07        ..      POP      {r0-r2,pc}
    KEY14_Handler
        0x000001ce:    b507        ..      PUSH     {r0-r2,lr}
        0x000001d0:    f002f964    ..d.    BL       KEY14 ; 0x249c
        0x000001d4:    bd07        ..      POP      {r0-r2,pc}
    KEY15_Handler
        0x000001d6:    b507        ..      PUSH     {r0-r2,lr}
        0x000001d8:    f002f978    ..x.    BL       KEY15 ; 0x24cc
        0x000001dc:    bd07        ..      POP      {r0-r2,pc}
    $d
        0x000001de:    0000        ..      DCW    0
    $t
    __user_initial_stackheap
        0x000001e0:    4803        .H      LDR      r0,[pc,#12] ; [0x1f0] = 0x200022d0
        0x000001e2:    4904        .I      LDR      r1,[pc,#16] ; [0x1f4] = 0x20002ad0
        0x000001e4:    4a04        .J      LDR      r2,[pc,#16] ; [0x1f8] = 0x200026d0
        0x000001e6:    4b05        .K      LDR      r3,[pc,#20] ; [0x1fc] = 0x200026d0
        0x000001e8:    4770        pG      BX       lr
    $d
        0x000001ea:    0000        ..      DCW    0
        0x000001ec:    00000091    ....    DCD    145
        0x000001f0:    200022d0    .".     DCD    536879824
        0x000001f4:    20002ad0    .*.     DCD    536881872
        0x000001f8:    200026d0    .&.     DCD    536880848
        0x000001fc:    200026d0    .&.     DCD    536880848
    $t
    .text
    strlen
        0x00000200:    b530        0.      PUSH     {r4,r5,lr}
        0x00000202:    1c44        D.      ADDS     r4,r0,#1
        0x00000204:    e003        ..      B        0x20e ; strlen + 14
        0x00000206:    7801        .x      LDRB     r1,[r0,#0]
        0x00000208:    1c40        @.      ADDS     r0,r0,#1
        0x0000020a:    2900        .)      CMP      r1,#0
        0x0000020c:    d00d        ..      BEQ      0x22a ; strlen + 42
        0x0000020e:    0781        ..      LSLS     r1,r0,#30
        0x00000210:    d1f9        ..      BNE      0x206 ; strlen + 6
        0x00000212:    4b0b        .K      LDR      r3,[pc,#44] ; [0x240] = 0x1010101
        0x00000214:    01dd        ..      LSLS     r5,r3,#7
        0x00000216:    c804        ..      LDM      r0!,{r2}
        0x00000218:    1ad1        ..      SUBS     r1,r2,r3
        0x0000021a:    4391        .C      BICS     r1,r1,r2
        0x0000021c:    4029        )@      ANDS     r1,r1,r5
        0x0000021e:    d0fa        ..      BEQ      0x216 ; strlen + 22
        0x00000220:    1b00        ..      SUBS     r0,r0,r4
        0x00000222:    060a        ..      LSLS     r2,r1,#24
        0x00000224:    d003        ..      BEQ      0x22e ; strlen + 46
        0x00000226:    1ec0        ..      SUBS     r0,r0,#3
        0x00000228:    bd30        0.      POP      {r4,r5,pc}
        0x0000022a:    1b00        ..      SUBS     r0,r0,r4
        0x0000022c:    bd30        0.      POP      {r4,r5,pc}
        0x0000022e:    040a        ..      LSLS     r2,r1,#16
        0x00000230:    d001        ..      BEQ      0x236 ; strlen + 54
        0x00000232:    1e80        ..      SUBS     r0,r0,#2
        0x00000234:    bd30        0.      POP      {r4,r5,pc}
        0x00000236:    0209        ..      LSLS     r1,r1,#8
        0x00000238:    d0fc        ..      BEQ      0x234 ; strlen + 52
        0x0000023a:    1e40        @.      SUBS     r0,r0,#1
        0x0000023c:    bd30        0.      POP      {r4,r5,pc}
    $d
        0x0000023e:    0000        ..      DCW    0
        0x00000240:    01010101    ....    DCD    16843009
    $t
    .text
    __aeabi_uidiv
    __aeabi_uidivmod
        0x00000244:    2200        ."      MOVS     r2,#0
        0x00000246:    0903        ..      LSRS     r3,r0,#4
        0x00000248:    428b        .B      CMP      r3,r1
        0x0000024a:    d32c        ,.      BCC      0x2a6 ; __aeabi_idiv + 78
        0x0000024c:    0a03        ..      LSRS     r3,r0,#8
        0x0000024e:    428b        .B      CMP      r3,r1
        0x00000250:    d311        ..      BCC      0x276 ; __aeabi_idiv + 30
        0x00000252:    2300        .#      MOVS     r3,#0
        0x00000254:    469c        .F      MOV      r12,r3
        0x00000256:    e04e        N.      B        0x2f6 ; __aeabi_idiv + 158
    __aeabi_idiv
    __aeabi_idivmod
        0x00000258:    4603        .F      MOV      r3,r0
        0x0000025a:    430b        .C      ORRS     r3,r3,r1
        0x0000025c:    d43c        <.      BMI      0x2d8 ; __aeabi_idiv + 128
        0x0000025e:    2200        ."      MOVS     r2,#0
        0x00000260:    0843        C.      LSRS     r3,r0,#1
        0x00000262:    428b        .B      CMP      r3,r1
        0x00000264:    d331        1.      BCC      0x2ca ; __aeabi_idiv + 114
        0x00000266:    0903        ..      LSRS     r3,r0,#4
        0x00000268:    428b        .B      CMP      r3,r1
        0x0000026a:    d31c        ..      BCC      0x2a6 ; __aeabi_idiv + 78
        0x0000026c:    0a03        ..      LSRS     r3,r0,#8
        0x0000026e:    428b        .B      CMP      r3,r1
        0x00000270:    d301        ..      BCC      0x276 ; __aeabi_idiv + 30
        0x00000272:    4694        .F      MOV      r12,r2
        0x00000274:    e03f        ?.      B        0x2f6 ; __aeabi_idiv + 158
        0x00000276:    09c3        ..      LSRS     r3,r0,#7
        0x00000278:    428b        .B      CMP      r3,r1
        0x0000027a:    d301        ..      BCC      0x280 ; __aeabi_idiv + 40
        0x0000027c:    01cb        ..      LSLS     r3,r1,#7
        0x0000027e:    1ac0        ..      SUBS     r0,r0,r3
        0x00000280:    4152        RA      ADCS     r2,r2,r2
        0x00000282:    0983        ..      LSRS     r3,r0,#6
        0x00000284:    428b        .B      CMP      r3,r1
        0x00000286:    d301        ..      BCC      0x28c ; __aeabi_idiv + 52
        0x00000288:    018b        ..      LSLS     r3,r1,#6
        0x0000028a:    1ac0        ..      SUBS     r0,r0,r3
        0x0000028c:    4152        RA      ADCS     r2,r2,r2
        0x0000028e:    0943        C.      LSRS     r3,r0,#5
        0x00000290:    428b        .B      CMP      r3,r1
        0x00000292:    d301        ..      BCC      0x298 ; __aeabi_idiv + 64
        0x00000294:    014b        K.      LSLS     r3,r1,#5
        0x00000296:    1ac0        ..      SUBS     r0,r0,r3
        0x00000298:    4152        RA      ADCS     r2,r2,r2
        0x0000029a:    0903        ..      LSRS     r3,r0,#4
        0x0000029c:    428b        .B      CMP      r3,r1
        0x0000029e:    d301        ..      BCC      0x2a4 ; __aeabi_idiv + 76
        0x000002a0:    010b        ..      LSLS     r3,r1,#4
        0x000002a2:    1ac0        ..      SUBS     r0,r0,r3
        0x000002a4:    4152        RA      ADCS     r2,r2,r2
        0x000002a6:    08c3        ..      LSRS     r3,r0,#3
        0x000002a8:    428b        .B      CMP      r3,r1
        0x000002aa:    d301        ..      BCC      0x2b0 ; __aeabi_idiv + 88
        0x000002ac:    00cb        ..      LSLS     r3,r1,#3
        0x000002ae:    1ac0        ..      SUBS     r0,r0,r3
        0x000002b0:    4152        RA      ADCS     r2,r2,r2
        0x000002b2:    0883        ..      LSRS     r3,r0,#2
        0x000002b4:    428b        .B      CMP      r3,r1
        0x000002b6:    d301        ..      BCC      0x2bc ; __aeabi_idiv + 100
        0x000002b8:    008b        ..      LSLS     r3,r1,#2
        0x000002ba:    1ac0        ..      SUBS     r0,r0,r3
        0x000002bc:    4152        RA      ADCS     r2,r2,r2
        0x000002be:    0843        C.      LSRS     r3,r0,#1
        0x000002c0:    428b        .B      CMP      r3,r1
        0x000002c2:    d301        ..      BCC      0x2c8 ; __aeabi_idiv + 112
        0x000002c4:    004b        K.      LSLS     r3,r1,#1
        0x000002c6:    1ac0        ..      SUBS     r0,r0,r3
        0x000002c8:    4152        RA      ADCS     r2,r2,r2
        0x000002ca:    1a41        A.      SUBS     r1,r0,r1
        0x000002cc:    d200        ..      BCS      0x2d0 ; __aeabi_idiv + 120
        0x000002ce:    4601        .F      MOV      r1,r0
        0x000002d0:    4152        RA      ADCS     r2,r2,r2
        0x000002d2:    4610        .F      MOV      r0,r2
        0x000002d4:    4770        pG      BX       lr
        0x000002d6:    e05d        ].      B        0x394 ; __aeabi_idiv + 316
        0x000002d8:    0fca        ..      LSRS     r2,r1,#31
        0x000002da:    d000        ..      BEQ      0x2de ; __aeabi_idiv + 134
        0x000002dc:    4249        IB      RSBS     r1,r1,#0
        0x000002de:    1003        ..      ASRS     r3,r0,#32
        0x000002e0:    d300        ..      BCC      0x2e4 ; __aeabi_idiv + 140
        0x000002e2:    4240        @B      RSBS     r0,r0,#0
        0x000002e4:    4053        S@      EORS     r3,r3,r2
        0x000002e6:    2200        ."      MOVS     r2,#0
        0x000002e8:    469c        .F      MOV      r12,r3
        0x000002ea:    0903        ..      LSRS     r3,r0,#4
        0x000002ec:    428b        .B      CMP      r3,r1
        0x000002ee:    d32d        -.      BCC      0x34c ; __aeabi_idiv + 244
        0x000002f0:    0a03        ..      LSRS     r3,r0,#8
        0x000002f2:    428b        .B      CMP      r3,r1
        0x000002f4:    d312        ..      BCC      0x31c ; __aeabi_idiv + 196
        0x000002f6:    22fc        ."      MOVS     r2,#0xfc
        0x000002f8:    0189        ..      LSLS     r1,r1,#6
        0x000002fa:    ba12        ..      REV      r2,r2
        0x000002fc:    0a03        ..      LSRS     r3,r0,#8
        0x000002fe:    428b        .B      CMP      r3,r1
        0x00000300:    d30c        ..      BCC      0x31c ; __aeabi_idiv + 196
        0x00000302:    0189        ..      LSLS     r1,r1,#6
        0x00000304:    1192        ..      ASRS     r2,r2,#6
        0x00000306:    428b        .B      CMP      r3,r1
        0x00000308:    d308        ..      BCC      0x31c ; __aeabi_idiv + 196
        0x0000030a:    0189        ..      LSLS     r1,r1,#6
        0x0000030c:    1192        ..      ASRS     r2,r2,#6
        0x0000030e:    428b        .B      CMP      r3,r1
        0x00000310:    d304        ..      BCC      0x31c ; __aeabi_idiv + 196
        0x00000312:    0189        ..      LSLS     r1,r1,#6
        0x00000314:    d03a        :.      BEQ      0x38c ; __aeabi_idiv + 308
        0x00000316:    1192        ..      ASRS     r2,r2,#6
        0x00000318:    e000        ..      B        0x31c ; __aeabi_idiv + 196
        0x0000031a:    0989        ..      LSRS     r1,r1,#6
        0x0000031c:    09c3        ..      LSRS     r3,r0,#7
        0x0000031e:    428b        .B      CMP      r3,r1
        0x00000320:    d301        ..      BCC      0x326 ; __aeabi_idiv + 206
        0x00000322:    01cb        ..      LSLS     r3,r1,#7
        0x00000324:    1ac0        ..      SUBS     r0,r0,r3
        0x00000326:    4152        RA      ADCS     r2,r2,r2
        0x00000328:    0983        ..      LSRS     r3,r0,#6
        0x0000032a:    428b        .B      CMP      r3,r1
        0x0000032c:    d301        ..      BCC      0x332 ; __aeabi_idiv + 218
        0x0000032e:    018b        ..      LSLS     r3,r1,#6
        0x00000330:    1ac0        ..      SUBS     r0,r0,r3
        0x00000332:    4152        RA      ADCS     r2,r2,r2
        0x00000334:    0943        C.      LSRS     r3,r0,#5
        0x00000336:    428b        .B      CMP      r3,r1
        0x00000338:    d301        ..      BCC      0x33e ; __aeabi_idiv + 230
        0x0000033a:    014b        K.      LSLS     r3,r1,#5
        0x0000033c:    1ac0        ..      SUBS     r0,r0,r3
        0x0000033e:    4152        RA      ADCS     r2,r2,r2
        0x00000340:    0903        ..      LSRS     r3,r0,#4
        0x00000342:    428b        .B      CMP      r3,r1
        0x00000344:    d301        ..      BCC      0x34a ; __aeabi_idiv + 242
        0x00000346:    010b        ..      LSLS     r3,r1,#4
        0x00000348:    1ac0        ..      SUBS     r0,r0,r3
        0x0000034a:    4152        RA      ADCS     r2,r2,r2
        0x0000034c:    08c3        ..      LSRS     r3,r0,#3
        0x0000034e:    428b        .B      CMP      r3,r1
        0x00000350:    d301        ..      BCC      0x356 ; __aeabi_idiv + 254
        0x00000352:    00cb        ..      LSLS     r3,r1,#3
        0x00000354:    1ac0        ..      SUBS     r0,r0,r3
        0x00000356:    4152        RA      ADCS     r2,r2,r2
        0x00000358:    0883        ..      LSRS     r3,r0,#2
        0x0000035a:    428b        .B      CMP      r3,r1
        0x0000035c:    d301        ..      BCC      0x362 ; __aeabi_idiv + 266
        0x0000035e:    008b        ..      LSLS     r3,r1,#2
        0x00000360:    1ac0        ..      SUBS     r0,r0,r3
        0x00000362:    4152        RA      ADCS     r2,r2,r2
        0x00000364:    d2d9        ..      BCS      0x31a ; __aeabi_idiv + 194
        0x00000366:    0843        C.      LSRS     r3,r0,#1
        0x00000368:    428b        .B      CMP      r3,r1
        0x0000036a:    d301        ..      BCC      0x370 ; __aeabi_idiv + 280
        0x0000036c:    004b        K.      LSLS     r3,r1,#1
        0x0000036e:    1ac0        ..      SUBS     r0,r0,r3
        0x00000370:    4152        RA      ADCS     r2,r2,r2
        0x00000372:    1a41        A.      SUBS     r1,r0,r1
        0x00000374:    d200        ..      BCS      0x378 ; __aeabi_idiv + 288
        0x00000376:    4601        .F      MOV      r1,r0
        0x00000378:    4663        cF      MOV      r3,r12
        0x0000037a:    4152        RA      ADCS     r2,r2,r2
        0x0000037c:    105b        [.      ASRS     r3,r3,#1
        0x0000037e:    4610        .F      MOV      r0,r2
        0x00000380:    d301        ..      BCC      0x386 ; __aeabi_idiv + 302
        0x00000382:    4240        @B      RSBS     r0,r0,#0
        0x00000384:    2b00        .+      CMP      r3,#0
        0x00000386:    d500        ..      BPL      0x38a ; __aeabi_idiv + 306
        0x00000388:    4249        IB      RSBS     r1,r1,#0
        0x0000038a:    4770        pG      BX       lr
        0x0000038c:    4663        cF      MOV      r3,r12
        0x0000038e:    105b        [.      ASRS     r3,r3,#1
        0x00000390:    d300        ..      BCC      0x394 ; __aeabi_idiv + 316
        0x00000392:    4240        @B      RSBS     r0,r0,#0
        0x00000394:    b501        ..      PUSH     {r0,lr}
        0x00000396:    2000        .       MOVS     r0,#0
        0x00000398:    46c0        .F      MOV      r8,r8
        0x0000039a:    46c0        .F      MOV      r8,r8
        0x0000039c:    bd02        ..      POP      {r1,pc}
    .text
    __use_two_region_memory
        0x0000039e:    4770        pG      BX       lr
    __rt_heap_escrow$2region
        0x000003a0:    4770        pG      BX       lr
    __rt_heap_expand$2region
        0x000003a2:    4770        pG      BX       lr
    .text
    __aeabi_d2f
    _d2f
        0x000003a4:    4602        .F      MOV      r2,r0
        0x000003a6:    0fc8        ..      LSRS     r0,r1,#31
        0x000003a8:    07c0        ..      LSLS     r0,r0,#31
        0x000003aa:    4381        .C      BICS     r1,r1,r0
        0x000003ac:    004b        K.      LSLS     r3,r1,#1
        0x000003ae:    b530        0.      PUSH     {r4,r5,lr}
        0x000003b0:    404b        K@      EORS     r3,r3,r1
        0x000003b2:    005b        [.      LSLS     r3,r3,#1
        0x000003b4:    0d9b        ..      LSRS     r3,r3,#22
        0x000003b6:    d020         .      BEQ      0x3fa ; __aeabi_d2f + 86
        0x000003b8:    2319        .#      MOVS     r3,#0x19
        0x000003ba:    06db        ..      LSLS     r3,r3,#27
        0x000003bc:    18c9        ..      ADDS     r1,r1,r3
        0x000003be:    2301        .#      MOVS     r3,#1
        0x000003c0:    051b        ..      LSLS     r3,r3,#20
        0x000003c2:    4299        .B      CMP      r1,r3
        0x000003c4:    db20         .      BLT      0x408 ; __aeabi_d2f + 100
        0x000003c6:    2403        .$      MOVS     r4,#3
        0x000003c8:    07a4        ..      LSLS     r4,r4,#30
        0x000003ca:    2504        .%      MOVS     r5,#4
        0x000003cc:    4613        .F      MOV      r3,r2
        0x000003ce:    40ab        .@      LSLS     r3,r3,r5
        0x000003d0:    d30b        ..      BCC      0x3ea ; __aeabi_d2f + 70
        0x000003d2:    2b00        .+      CMP      r3,#0
        0x000003d4:    d104        ..      BNE      0x3e0 ; __aeabi_d2f + 60
        0x000003d6:    06eb        ..      LSLS     r3,r5,#27
        0x000003d8:    4013        .@      ANDS     r3,r3,r2
        0x000003da:    009b        ..      LSLS     r3,r3,#2
        0x000003dc:    42e3        .B      CMN      r3,r4
        0x000003de:    d404        ..      BMI      0x3ea ; __aeabi_d2f + 70
        0x000003e0:    2401        .$      MOVS     r4,#1
        0x000003e2:    0764        d.      LSLS     r4,r4,#29
        0x000003e4:    2300        .#      MOVS     r3,#0
        0x000003e6:    1912        ..      ADDS     r2,r2,r4
        0x000003e8:    4159        YA      ADCS     r1,r1,r3
        0x000003ea:    23ff        .#      MOVS     r3,#0xff
        0x000003ec:    051b        ..      LSLS     r3,r3,#20
        0x000003ee:    4299        .B      CMP      r1,r3
        0x000003f0:    d20b        ..      BCS      0x40a ; __aeabi_d2f + 102
        0x000003f2:    00c9        ..      LSLS     r1,r1,#3
        0x000003f4:    4301        .C      ORRS     r1,r1,r0
        0x000003f6:    0f50        P.      LSRS     r0,r2,#29
        0x000003f8:    e009        ..      B        0x40e ; __aeabi_d2f + 106
        0x000003fa:    02cb        ..      LSLS     r3,r1,#11
        0x000003fc:    d504        ..      BPL      0x408 ; __aeabi_d2f + 100
        0x000003fe:    4301        .C      ORRS     r1,r1,r0
        0x00000400:    0308        ..      LSLS     r0,r1,#12
        0x00000402:    4302        .C      ORRS     r2,r2,r0
        0x00000404:    d005        ..      BEQ      0x412 ; __aeabi_d2f + 110
        0x00000406:    4805        .H      LDR      r0,[pc,#20] ; [0x41c] = 0x7fc00000
        0x00000408:    bd30        0.      POP      {r4,r5,pc}
        0x0000040a:    21ff        .!      MOVS     r1,#0xff
        0x0000040c:    05c9        ..      LSLS     r1,r1,#23
        0x0000040e:    4308        .C      ORRS     r0,r0,r1
        0x00000410:    bd30        0.      POP      {r4,r5,pc}
        0x00000412:    4608        .F      MOV      r0,r1
        0x00000414:    2107        .!      MOVS     r1,#7
        0x00000416:    0509        ..      LSLS     r1,r1,#20
        0x00000418:    4388        .C      BICS     r0,r0,r1
        0x0000041a:    bd30        0.      POP      {r4,r5,pc}
    $d
        0x0000041c:    7fc00000    ....    DCD    2143289344
    $t
    .text
    _dadd1
        0x00000420:    b5f0        ..      PUSH     {r4-r7,lr}
        0x00000422:    460c        .F      MOV      r4,r1
        0x00000424:    1a87        ..      SUBS     r7,r0,r2
        0x00000426:    419c        .A      SBCS     r4,r4,r3
        0x00000428:    460d        .F      MOV      r5,r1
        0x0000042a:    1a86        ..      SUBS     r6,r0,r2
        0x0000042c:    419d        .A      SBCS     r5,r5,r3
        0x0000042e:    d203        ..      BCS      0x438 ; _dadd1 + 24
        0x00000430:    1bc0        ..      SUBS     r0,r0,r7
        0x00000432:    41a1        .A      SBCS     r1,r1,r4
        0x00000434:    19d2        ..      ADDS     r2,r2,r7
        0x00000436:    4163        cA      ADCS     r3,r3,r4
        0x00000438:    0d0d        ..      LSRS     r5,r1,#20
        0x0000043a:    0d1f        ..      LSRS     r7,r3,#20
        0x0000043c:    4ec9        .N      LDR      r6,[pc,#804] ; [0x764] = 0x7ff
        0x0000043e:    1bec        ..      SUBS     r4,r5,r7
        0x00000440:    43ae        .C      BICS     r6,r6,r5
        0x00000442:    d05c        \.      BEQ      0x4fe ; _dadd1 + 222
        0x00000444:    057f        ..      LSLS     r7,r7,#21
        0x00000446:    0d7f        ..      LSRS     r7,r7,#21
        0x00000448:    2600        .&      MOVS     r6,#0
        0x0000044a:    2f00        ./      CMP      r7,#0
        0x0000044c:    d051        Q.      BEQ      0x4f2 ; _dadd1 + 210
        0x0000044e:    052d        -.      LSLS     r5,r5,#20
        0x00000450:    46ac        .F      MOV      r12,r5
        0x00000452:    43a9        .C      BICS     r1,r1,r5
        0x00000454:    02dd        ..      LSLS     r5,r3,#11
        0x00000456:    2301        .#      MOVS     r3,#1
        0x00000458:    0aed        ..      LSRS     r5,r5,#11
        0x0000045a:    051b        ..      LSLS     r3,r3,#20
        0x0000045c:    431d        .C      ORRS     r5,r5,r3
        0x0000045e:    2320         #      MOVS     r3,#0x20
        0x00000460:    1b1b        ..      SUBS     r3,r3,r4
        0x00000462:    d424        $.      BMI      0x4ae ; _dadd1 + 142
        0x00000464:    4617        .F      MOV      r7,r2
        0x00000466:    40e7        .@      LSRS     r7,r7,r4
        0x00000468:    1838        8.      ADDS     r0,r7,r0
        0x0000046a:    4171        qA      ADCS     r1,r1,r6
        0x0000046c:    462f        /F      MOV      r7,r5
        0x0000046e:    40e7        .@      LSRS     r7,r7,r4
        0x00000470:    19cc        ..      ADDS     r4,r1,r7
        0x00000472:    409d        .@      LSLS     r5,r5,r3
        0x00000474:    1828        (.      ADDS     r0,r5,r0
        0x00000476:    4631        1F      MOV      r1,r6
        0x00000478:    4161        aA      ADCS     r1,r1,r4
        0x0000047a:    0d0c        ..      LSRS     r4,r1,#20
        0x0000047c:    d127        '.      BNE      0x4ce ; _dadd1 + 174
        0x0000047e:    4461        aD      ADD      r1,r1,r12
        0x00000480:    409a        .@      LSLS     r2,r2,r3
        0x00000482:    d513        ..      BPL      0x4ac ; _dadd1 + 140
        0x00000484:    2300        .#      MOVS     r3,#0
        0x00000486:    1c40        @.      ADDS     r0,r0,#1
        0x00000488:    4159        YA      ADCS     r1,r1,r3
        0x0000048a:    0052        R.      LSLS     r2,r2,#1
        0x0000048c:    d10e        ..      BNE      0x4ac ; _dadd1 + 140
        0x0000048e:    0840        @.      LSRS     r0,r0,#1
        0x00000490:    0040        @.      LSLS     r0,r0,#1
        0x00000492:    2201        ."      MOVS     r2,#1
        0x00000494:    004b        K.      LSLS     r3,r1,#1
        0x00000496:    0552        R.      LSLS     r2,r2,#21
        0x00000498:    42d3        .B      CMN      r3,r2
        0x0000049a:    d307        ..      BCC      0x4ac ; _dadd1 + 140
        0x0000049c:    2005        .       MOVS     r0,#5
        0x0000049e:    0740        @.      LSLS     r0,r0,#29
        0x000004a0:    42c1        .B      CMN      r1,r0
        0x000004a2:    d501        ..      BPL      0x4a8 ; _dadd1 + 136
        0x000004a4:    49b0        .I      LDR      r1,[pc,#704] ; [0x768] = 0xfff00000
        0x000004a6:    e000        ..      B        0x4aa ; _dadd1 + 138
        0x000004a8:    49b0        .I      LDR      r1,[pc,#704] ; [0x76c] = 0x7ff00000
        0x000004aa:    4630        0F      MOV      r0,r6
        0x000004ac:    bdf0        ..      POP      {r4-r7,pc}
        0x000004ae:    006b        k.      LSLS     r3,r5,#1
        0x000004b0:    2a00        .*      CMP      r2,#0
        0x000004b2:    d000        ..      BEQ      0x4b6 ; _dadd1 + 150
        0x000004b4:    2201        ."      MOVS     r2,#1
        0x000004b6:    189a        ..      ADDS     r2,r3,r2
        0x000004b8:    231f        .#      MOVS     r3,#0x1f
        0x000004ba:    3c20         <      SUBS     r4,r4,#0x20
        0x000004bc:    1b1b        ..      SUBS     r3,r3,r4
        0x000004be:    d501        ..      BPL      0x4c4 ; _dadd1 + 164
        0x000004c0:    2300        .#      MOVS     r3,#0
        0x000004c2:    e002        ..      B        0x4ca ; _dadd1 + 170
        0x000004c4:    40e5        .@      LSRS     r5,r5,r4
        0x000004c6:    1828        (.      ADDS     r0,r5,r0
        0x000004c8:    4171        qA      ADCS     r1,r1,r6
        0x000004ca:    0d0c        ..      LSRS     r4,r1,#20
        0x000004cc:    d0d7        ..      BEQ      0x47e ; _dadd1 + 94
        0x000004ce:    2401        .$      MOVS     r4,#1
        0x000004d0:    0524        $.      LSLS     r4,r4,#20
        0x000004d2:    1909        ..      ADDS     r1,r1,r4
        0x000004d4:    07c4        ..      LSLS     r4,r0,#31
        0x000004d6:    07cd        ..      LSLS     r5,r1,#31
        0x000004d8:    0840        @.      LSRS     r0,r0,#1
        0x000004da:    0849        I.      LSRS     r1,r1,#1
        0x000004dc:    0fe4        ..      LSRS     r4,r4,#31
        0x000004de:    4328        (C      ORRS     r0,r0,r5
        0x000004e0:    4461        aD      ADD      r1,r1,r12
        0x000004e2:    2c00        .,      CMP      r4,#0
        0x000004e4:    d0d5        ..      BEQ      0x492 ; _dadd1 + 114
        0x000004e6:    2400        .$      MOVS     r4,#0
        0x000004e8:    1c40        @.      ADDS     r0,r0,#1
        0x000004ea:    4161        aA      ADCS     r1,r1,r4
        0x000004ec:    409a        .@      LSLS     r2,r2,r3
        0x000004ee:    d1d0        ..      BNE      0x492 ; _dadd1 + 114
        0x000004f0:    e7cd        ..      B        0x48e ; _dadd1 + 110
        0x000004f2:    056a        j.      LSLS     r2,r5,#21
        0x000004f4:    0d52        R.      LSRS     r2,r2,#21
        0x000004f6:    d1d9        ..      BNE      0x4ac ; _dadd1 + 140
        0x000004f8:    0fc9        ..      LSRS     r1,r1,#31
        0x000004fa:    07c9        ..      LSLS     r1,r1,#31
        0x000004fc:    e7d5        ..      B        0x4aa ; _dadd1 + 138
        0x000004fe:    4d9c        .M      LDR      r5,[pc,#624] ; [0x770] = 0xffe00000
        0x00000500:    004e        N.      LSLS     r6,r1,#1
        0x00000502:    2800        .(      CMP      r0,#0
        0x00000504:    d001        ..      BEQ      0x50a ; _dadd1 + 234
        0x00000506:    2401        .$      MOVS     r4,#1
        0x00000508:    e000        ..      B        0x50c ; _dadd1 + 236
        0x0000050a:    2400        .$      MOVS     r4,#0
        0x0000050c:    1934        4.      ADDS     r4,r6,r4
        0x0000050e:    005f        _.      LSLS     r7,r3,#1
        0x00000510:    2a00        .*      CMP      r2,#0
        0x00000512:    d001        ..      BEQ      0x518 ; _dadd1 + 248
        0x00000514:    2601        .&      MOVS     r6,#1
        0x00000516:    e000        ..      B        0x51a ; _dadd1 + 250
        0x00000518:    2600        .&      MOVS     r6,#0
        0x0000051a:    19be        ..      ADDS     r6,r7,r6
        0x0000051c:    4f95        .O      LDR      r7,[pc,#596] ; [0x774] = 0x7ff80000
        0x0000051e:    42ac        .B      CMP      r4,r5
        0x00000520:    d80c        ..      BHI      0x53c ; _dadd1 + 284
        0x00000522:    42ae        .B      CMP      r6,r5
        0x00000524:    d80a        ..      BHI      0x53c ; _dadd1 + 284
        0x00000526:    42b4        .B      CMP      r4,r6
        0x00000528:    d006        ..      BEQ      0x538 ; _dadd1 + 280
        0x0000052a:    2501        .%      MOVS     r5,#1
        0x0000052c:    056d        m.      LSLS     r5,r5,#21
        0x0000052e:    42ec        .B      CMN      r4,r5
        0x00000530:    d0bc        ..      BEQ      0x4ac ; _dadd1 + 140
        0x00000532:    4610        .F      MOV      r0,r2
        0x00000534:    4619        .F      MOV      r1,r3
        0x00000536:    bdf0        ..      POP      {r4-r7,pc}
        0x00000538:    4299        .B      CMP      r1,r3
        0x0000053a:    d0fc        ..      BEQ      0x536 ; _dadd1 + 278
        0x0000053c:    2000        .       MOVS     r0,#0
        0x0000053e:    4639        9F      MOV      r1,r7
        0x00000540:    bdf0        ..      POP      {r4-r7,pc}
    _dsub1
        0x00000542:    b5f0        ..      PUSH     {r4-r7,lr}
        0x00000544:    b41f        ..      PUSH     {r0-r4}
        0x00000546:    460c        .F      MOV      r4,r1
        0x00000548:    460f        .F      MOV      r7,r1
        0x0000054a:    1a81        ..      SUBS     r1,r0,r2
        0x0000054c:    419f        .A      SBCS     r7,r7,r3
        0x0000054e:    4625        %F      MOV      r5,r4
        0x00000550:    1a86        ..      SUBS     r6,r0,r2
        0x00000552:    419d        .A      SBCS     r5,r5,r3
        0x00000554:    d206        ..      BCS      0x564 ; _dsub1 + 34
        0x00000556:    2501        .%      MOVS     r5,#1
        0x00000558:    07ed        ..      LSLS     r5,r5,#31
        0x0000055a:    406f        o@      EORS     r7,r7,r5
        0x0000055c:    1a40        @.      SUBS     r0,r0,r1
        0x0000055e:    41bc        .A      SBCS     r4,r4,r7
        0x00000560:    1852        R.      ADDS     r2,r2,r1
        0x00000562:    417b        {A      ADCS     r3,r3,r7
        0x00000564:    0d21        !.      LSRS     r1,r4,#20
        0x00000566:    0d1e        ..      LSRS     r6,r3,#20
        0x00000568:    1b8d        ..      SUBS     r5,r1,r6
        0x0000056a:    46ac        .F      MOV      r12,r5
        0x0000056c:    4d7d        }M      LDR      r5,[pc,#500] ; [0x764] = 0x7ff
        0x0000056e:    438d        .C      BICS     r5,r5,r1
        0x00000570:    d07e        ~.      BEQ      0x670 ; _dsub1 + 302
        0x00000572:    0575        u.      LSLS     r5,r6,#21
        0x00000574:    0d6d        m.      LSRS     r5,r5,#21
        0x00000576:    d07c        |.      BEQ      0x672 ; _dsub1 + 304
        0x00000578:    050d        ..      LSLS     r5,r1,#20
        0x0000057a:    46ae        .F      MOV      lr,r5
        0x0000057c:    43ac        .C      BICS     r4,r4,r5
        0x0000057e:    031b        ..      LSLS     r3,r3,#12
        0x00000580:    0b1b        ..      LSRS     r3,r3,#12
        0x00000582:    4d79        yM      LDR      r5,[pc,#484] ; [0x768] = 0xfff00000
        0x00000584:    4252        RB      RSBS     r2,r2,#0
        0x00000586:    419d        .A      SBCS     r5,r5,r3
        0x00000588:    2320         #      MOVS     r3,#0x20
        0x0000058a:    4666        fF      MOV      r6,r12
        0x0000058c:    1b9b        ..      SUBS     r3,r3,r6
        0x0000058e:    d314        ..      BCC      0x5ba ; _dsub1 + 120
        0x00000590:    4617        .F      MOV      r7,r2
        0x00000592:    40f7        .@      LSRS     r7,r7,r6
        0x00000594:    1838        8.      ADDS     r0,r7,r0
        0x00000596:    2600        .&      MOVS     r6,#0
        0x00000598:    9000        ..      STR      r0,[sp,#0]
        0x0000059a:    4174        tA      ADCS     r4,r4,r6
        0x0000059c:    4660        `F      MOV      r0,r12
        0x0000059e:    462f        /F      MOV      r7,r5
        0x000005a0:    4107        .A      ASRS     r7,r7,r0
        0x000005a2:    19e4        ..      ADDS     r4,r4,r7
        0x000005a4:    9800        ..      LDR      r0,[sp,#0]
        0x000005a6:    409d        .@      LSLS     r5,r5,r3
        0x000005a8:    1828        (.      ADDS     r0,r5,r0
        0x000005aa:    4166        fA      ADCS     r6,r6,r4
        0x000005ac:    d416        ..      BMI      0x5dc ; _dsub1 + 154
        0x000005ae:    4671        qF      MOV      r1,lr
        0x000005b0:    1871        q.      ADDS     r1,r6,r1
        0x000005b2:    409a        .@      LSLS     r2,r2,r3
        0x000005b4:    d525        %.      BPL      0x602 ; _dsub1 + 192
        0x000005b6:    2301        .#      MOVS     r3,#1
        0x000005b8:    e020         .      B        0x5fc ; _dsub1 + 186
        0x000005ba:    1893        ..      ADDS     r3,r2,r2
        0x000005bc:    462a        *F      MOV      r2,r5
        0x000005be:    416a        jA      ADCS     r2,r2,r5
        0x000005c0:    0052        R.      LSLS     r2,r2,#1
        0x000005c2:    2b00        .+      CMP      r3,#0
        0x000005c4:    d000        ..      BEQ      0x5c8 ; _dsub1 + 134
        0x000005c6:    1c52        R.      ADDS     r2,r2,#1
        0x000005c8:    231e        .#      MOVS     r3,#0x1e
        0x000005ca:    3e20         >      SUBS     r6,r6,#0x20
        0x000005cc:    1b9b        ..      SUBS     r3,r3,r6
        0x000005ce:    2b00        .+      CMP      r3,#0
        0x000005d0:    dd61        a.      BLE      0x696 ; _dsub1 + 340
        0x000005d2:    4135        5A      ASRS     r5,r5,r6
        0x000005d4:    17ee        ..      ASRS     r6,r5,#31
        0x000005d6:    1828        (.      ADDS     r0,r5,r0
        0x000005d8:    4166        fA      ADCS     r6,r6,r4
        0x000005da:    d5e8        ..      BPL      0x5ae ; _dsub1 + 108
        0x000005dc:    1800        ..      ADDS     r0,r0,r0
        0x000005de:    4176        vA      ADCS     r6,r6,r6
        0x000005e0:    1c5b        [.      ADDS     r3,r3,#1
        0x000005e2:    409a        .@      LSLS     r2,r2,r3
        0x000005e4:    d300        ..      BCC      0x5e8 ; _dsub1 + 166
        0x000005e6:    1c40        @.      ADDS     r0,r0,#1
        0x000005e8:    054b        K.      LSLS     r3,r1,#21
        0x000005ea:    18f3        ..      ADDS     r3,r6,r3
        0x000005ec:    2415        .$      MOVS     r4,#0x15
        0x000005ee:    40e3        .@      LSRS     r3,r3,r4
        0x000005f0:    d310        ..      BCC      0x614 ; _dsub1 + 210
        0x000005f2:    2b00        .+      CMP      r3,#0
        0x000005f4:    d052        R.      BEQ      0x69c ; _dsub1 + 346
        0x000005f6:    4671        qF      MOV      r1,lr
        0x000005f8:    1871        q.      ADDS     r1,r6,r1
        0x000005fa:    0fd3        ..      LSRS     r3,r2,#31
        0x000005fc:    18c0        ..      ADDS     r0,r0,r3
        0x000005fe:    d302        ..      BCC      0x606 ; _dsub1 + 196
        0x00000600:    1c49        I.      ADDS     r1,r1,#1
        0x00000602:    b005        ..      ADD      sp,sp,#0x14
        0x00000604:    bdf0        ..      POP      {r4-r7,pc}
        0x00000606:    2301        .#      MOVS     r3,#1
        0x00000608:    07db        ..      LSLS     r3,r3,#31
        0x0000060a:    429a        .B      CMP      r2,r3
        0x0000060c:    d1f9        ..      BNE      0x602 ; _dsub1 + 192
        0x0000060e:    0840        @.      LSRS     r0,r0,#1
        0x00000610:    0040        @.      LSLS     r0,r0,#1
        0x00000612:    e7f6        ..      B        0x602 ; _dsub1 + 192
        0x00000614:    2201        ."      MOVS     r2,#1
        0x00000616:    0552        R.      LSLS     r2,r2,#21
        0x00000618:    18b2        ..      ADDS     r2,r6,r2
        0x0000061a:    d101        ..      BNE      0x620 ; _dsub1 + 222
        0x0000061c:    2800        .(      CMP      r0,#0
        0x0000061e:    d053        S.      BEQ      0x6c8 ; _dsub1 + 390
        0x00000620:    2301        .#      MOVS     r3,#1
        0x00000622:    0acc        ..      LSRS     r4,r1,#11
        0x00000624:    02db        ..      LSLS     r3,r3,#11
        0x00000626:    4399        .C      BICS     r1,r1,r3
        0x00000628:    1e89        ..      SUBS     r1,r1,#2
        0x0000062a:    2a00        .*      CMP      r2,#0
        0x0000062c:    d108        ..      BNE      0x640 ; _dsub1 + 254
        0x0000062e:    0c02        ..      LSRS     r2,r0,#16
        0x00000630:    d003        ..      BEQ      0x63a ; _dsub1 + 248
        0x00000632:    0c02        ..      LSRS     r2,r0,#16
        0x00000634:    0400        ..      LSLS     r0,r0,#16
        0x00000636:    3910        .9      SUBS     r1,r1,#0x10
        0x00000638:    e002        ..      B        0x640 ; _dsub1 + 254
        0x0000063a:    4602        .F      MOV      r2,r0
        0x0000063c:    2000        .       MOVS     r0,#0
        0x0000063e:    3920         9      SUBS     r1,r1,#0x20
        0x00000640:    2300        .#      MOVS     r3,#0
        0x00000642:    0b55        U.      LSRS     r5,r2,#13
        0x00000644:    d105        ..      BNE      0x652 ; _dsub1 + 272
        0x00000646:    0212        ..      LSLS     r2,r2,#8
        0x00000648:    2308        .#      MOVS     r3,#8
        0x0000064a:    0b55        U.      LSRS     r5,r2,#13
        0x0000064c:    d101        ..      BNE      0x652 ; _dsub1 + 272
        0x0000064e:    0152        R.      LSLS     r2,r2,#5
        0x00000650:    230d        .#      MOVS     r3,#0xd
        0x00000652:    0c55        U.      LSRS     r5,r2,#17
        0x00000654:    d101        ..      BNE      0x65a ; _dsub1 + 280
        0x00000656:    0112        ..      LSLS     r2,r2,#4
        0x00000658:    1d1b        ..      ADDS     r3,r3,#4
        0x0000065a:    0cd5        ..      LSRS     r5,r2,#19
        0x0000065c:    d101        ..      BNE      0x662 ; _dsub1 + 288
        0x0000065e:    0092        ..      LSLS     r2,r2,#2
        0x00000660:    1c9b        ..      ADDS     r3,r3,#2
        0x00000662:    0d15        ..      LSRS     r5,r2,#20
        0x00000664:    d101        ..      BNE      0x66a ; _dsub1 + 296
        0x00000666:    0052        R.      LSLS     r2,r2,#1
        0x00000668:    1c5b        [.      ADDS     r3,r3,#1
        0x0000066a:    2520         %      MOVS     r5,#0x20
        0x0000066c:    1aee        ..      SUBS     r6,r5,r3
        0x0000066e:    e001        ..      B        0x674 ; _dsub1 + 306
        0x00000670:    e02c        ,.      B        0x6cc ; _dsub1 + 394
        0x00000672:    e022        ".      B        0x6ba ; _dsub1 + 376
        0x00000674:    4605        .F      MOV      r5,r0
        0x00000676:    40f5        .@      LSRS     r5,r5,r6
        0x00000678:    4315        .C      ORRS     r5,r5,r2
        0x0000067a:    4098        .@      LSLS     r0,r0,r3
        0x0000067c:    1aca        ..      SUBS     r2,r1,r3
        0x0000067e:    07e1        ..      LSLS     r1,r4,#31
        0x00000680:    1869        i.      ADDS     r1,r5,r1
        0x00000682:    0513        ..      LSLS     r3,r2,#20
        0x00000684:    18c9        ..      ADDS     r1,r1,r3
        0x00000686:    2a00        .*      CMP      r2,#0
        0x00000688:    dabb        ..      BGE      0x602 ; _dsub1 + 192
        0x0000068a:    2003        .       MOVS     r0,#3
        0x0000068c:    0740        @.      LSLS     r0,r0,#29
        0x0000068e:    1808        ..      ADDS     r0,r1,r0
        0x00000690:    0fc1        ..      LSRS     r1,r0,#31
        0x00000692:    07c9        ..      LSLS     r1,r1,#31
        0x00000694:    e00f        ..      B        0x6b6 ; _dsub1 + 372
        0x00000696:    4671        qF      MOV      r1,lr
        0x00000698:    1861        a.      ADDS     r1,r4,r1
        0x0000069a:    e7b2        ..      B        0x602 ; _dsub1 + 192
        0x0000069c:    07f1        ..      LSLS     r1,r6,#31
        0x0000069e:    0840        @.      LSRS     r0,r0,#1
        0x000006a0:    4308        .C      ORRS     r0,r0,r1
        0x000006a2:    1071        q.      ASRS     r1,r6,#1
        0x000006a4:    4471        qD      ADD      r1,r1,lr
        0x000006a6:    004a        J.      LSLS     r2,r1,#1
        0x000006a8:    d00c        ..      BEQ      0x6c4 ; _dsub1 + 386
        0x000006aa:    2301        .#      MOVS     r3,#1
        0x000006ac:    055b        [.      LSLS     r3,r3,#21
        0x000006ae:    429a        .B      CMP      r2,r3
        0x000006b0:    d2a7        ..      BCS      0x602 ; _dsub1 + 192
        0x000006b2:    0fc9        ..      LSRS     r1,r1,#31
        0x000006b4:    07c9        ..      LSLS     r1,r1,#31
        0x000006b6:    2000        .       MOVS     r0,#0
        0x000006b8:    e7a3        ..      B        0x602 ; _dsub1 + 192
        0x000006ba:    0549        I.      LSLS     r1,r1,#21
        0x000006bc:    0d49        I.      LSRS     r1,r1,#21
        0x000006be:    d126        &.      BNE      0x70e ; _dsub1 + 460
        0x000006c0:    2000        .       MOVS     r0,#0
        0x000006c2:    e001        ..      B        0x6c8 ; _dsub1 + 390
        0x000006c4:    2800        .(      CMP      r0,#0
        0x000006c6:    d1f4        ..      BNE      0x6b2 ; _dsub1 + 368
        0x000006c8:    2100        .!      MOVS     r1,#0
        0x000006ca:    e79a        ..      B        0x602 ; _dsub1 + 192
        0x000006cc:    4d28        (M      LDR      r5,[pc,#160] ; [0x770] = 0xffe00000
        0x000006ce:    0066        f.      LSLS     r6,r4,#1
        0x000006d0:    2800        .(      CMP      r0,#0
        0x000006d2:    d001        ..      BEQ      0x6d8 ; _dsub1 + 406
        0x000006d4:    2101        .!      MOVS     r1,#1
        0x000006d6:    e000        ..      B        0x6da ; _dsub1 + 408
        0x000006d8:    2100        .!      MOVS     r1,#0
        0x000006da:    1871        q.      ADDS     r1,r6,r1
        0x000006dc:    005f        _.      LSLS     r7,r3,#1
        0x000006de:    2a00        .*      CMP      r2,#0
        0x000006e0:    d001        ..      BEQ      0x6e6 ; _dsub1 + 420
        0x000006e2:    2601        .&      MOVS     r6,#1
        0x000006e4:    e000        ..      B        0x6e8 ; _dsub1 + 422
        0x000006e6:    2600        .&      MOVS     r6,#0
        0x000006e8:    19be        ..      ADDS     r6,r7,r6
        0x000006ea:    4f22        "O      LDR      r7,[pc,#136] ; [0x774] = 0x7ff80000
        0x000006ec:    42a9        .B      CMP      r1,r5
        0x000006ee:    d810        ..      BHI      0x712 ; _dsub1 + 464
        0x000006f0:    42ae        .B      CMP      r6,r5
        0x000006f2:    d80e        ..      BHI      0x712 ; _dsub1 + 464
        0x000006f4:    42b1        .B      CMP      r1,r6
        0x000006f6:    d008        ..      BEQ      0x70a ; _dsub1 + 456
        0x000006f8:    2501        .%      MOVS     r5,#1
        0x000006fa:    056d        m.      LSLS     r5,r5,#21
        0x000006fc:    42e9        .B      CMN      r1,r5
        0x000006fe:    d006        ..      BEQ      0x70e ; _dsub1 + 460
        0x00000700:    4619        .F      MOV      r1,r3
        0x00000702:    02a8        ..      LSLS     r0,r5,#10
        0x00000704:    4041        A@      EORS     r1,r1,r0
        0x00000706:    4610        .F      MOV      r0,r2
        0x00000708:    e77b        {.      B        0x602 ; _dsub1 + 192
        0x0000070a:    429c        .B      CMP      r4,r3
        0x0000070c:    d001        ..      BEQ      0x712 ; _dsub1 + 464
        0x0000070e:    4621        !F      MOV      r1,r4
        0x00000710:    e777        w.      B        0x602 ; _dsub1 + 192
        0x00000712:    2000        .       MOVS     r0,#0
        0x00000714:    4639        9F      MOV      r1,r7
        0x00000716:    e774        t.      B        0x602 ; _dsub1 + 192
    __aeabi_dadd
    _dadd
        0x00000718:    b510        ..      PUSH     {r4,lr}
        0x0000071a:    460c        .F      MOV      r4,r1
        0x0000071c:    405c        \@      EORS     r4,r4,r3
        0x0000071e:    d505        ..      BPL      0x72c ; __aeabi_dadd + 20
        0x00000720:    2401        .$      MOVS     r4,#1
        0x00000722:    07e4        ..      LSLS     r4,r4,#31
        0x00000724:    4063        c@      EORS     r3,r3,r4
        0x00000726:    f7ffff0c    ....    BL       _dsub1 ; 0x542
        0x0000072a:    bd10        ..      POP      {r4,pc}
        0x0000072c:    f7fffe78    ..x.    BL       _dadd1 ; 0x420
        0x00000730:    bd10        ..      POP      {r4,pc}
    __aeabi_dsub
    _dsub
        0x00000732:    b430        0.      PUSH     {r4,r5}
        0x00000734:    460c        .F      MOV      r4,r1
        0x00000736:    405c        \@      EORS     r4,r4,r3
        0x00000738:    d504        ..      BPL      0x744 ; __aeabi_dsub + 18
        0x0000073a:    2401        .$      MOVS     r4,#1
        0x0000073c:    07e4        ..      LSLS     r4,r4,#31
        0x0000073e:    4063        c@      EORS     r3,r3,r4
        0x00000740:    bc30        0.      POP      {r4,r5}
        0x00000742:    e66d        m.      B        _dadd1 ; 0x420
        0x00000744:    bc30        0.      POP      {r4,r5}
        0x00000746:    e6fc        ..      B        _dsub1 ; 0x542
    __aeabi_drsub
    _drsb
        0x00000748:    b570        p.      PUSH     {r4-r6,lr}
        0x0000074a:    2401        .$      MOVS     r4,#1
        0x0000074c:    07e4        ..      LSLS     r4,r4,#31
        0x0000074e:    4061        a@      EORS     r1,r1,r4
        0x00000750:    460d        .F      MOV      r5,r1
        0x00000752:    405d        ]@      EORS     r5,r5,r3
        0x00000754:    d402        ..      BMI      0x75c ; __aeabi_drsub + 20
        0x00000756:    f7fffe63    ..c.    BL       _dadd1 ; 0x420
        0x0000075a:    bd70        p.      POP      {r4-r6,pc}
        0x0000075c:    4063        c@      EORS     r3,r3,r4
        0x0000075e:    f7fffef0    ....    BL       _dsub1 ; 0x542
        0x00000762:    bd70        p.      POP      {r4-r6,pc}
    $d
        0x00000764:    000007ff    ....    DCD    2047
        0x00000768:    fff00000    ....    DCD    4293918720
        0x0000076c:    7ff00000    ....    DCD    2146435072
        0x00000770:    ffe00000    ....    DCD    4292870144
        0x00000774:    7ff80000    ....    DCD    2146959360
    $t
    .text
    __aeabi_d2iz
    _dfix
        0x00000778:    b530        0.      PUSH     {r4,r5,lr}
        0x0000077a:    4603        .F      MOV      r3,r0
        0x0000077c:    02ca        ..      LSLS     r2,r1,#11
        0x0000077e:    0d40        @.      LSRS     r0,r0,#21
        0x00000780:    4310        .C      ORRS     r0,r0,r2
        0x00000782:    4d16        .M      LDR      r5,[pc,#88] ; [0x7dc] = 0x41e
        0x00000784:    4c16        .L      LDR      r4,[pc,#88] ; [0x7e0] = 0x80000000
        0x00000786:    150a        ..      ASRS     r2,r1,#20
        0x00000788:    d002        ..      BEQ      0x790 ; __aeabi_d2iz + 24
        0x0000078a:    4320         C      ORRS     r0,r0,r4
        0x0000078c:    2a00        .*      CMP      r2,#0
        0x0000078e:    db06        ..      BLT      0x79e ; __aeabi_d2iz + 38
        0x00000790:    1aaa        ..      SUBS     r2,r5,r2
        0x00000792:    2a00        .*      CMP      r2,#0
        0x00000794:    dd12        ..      BLE      0x7bc ; __aeabi_d2iz + 68
        0x00000796:    40d0        .@      LSRS     r0,r0,r2
        0x00000798:    2aff        .*      CMP      r2,#0xff
        0x0000079a:    dc0b        ..      BGT      0x7b4 ; __aeabi_d2iz + 60
        0x0000079c:    bd30        0.      POP      {r4,r5,pc}
        0x0000079e:    0552        R.      LSLS     r2,r2,#21
        0x000007a0:    0d52        R.      LSRS     r2,r2,#21
        0x000007a2:    d101        ..      BNE      0x7a8 ; __aeabi_d2iz + 48
        0x000007a4:    0040        @.      LSLS     r0,r0,#1
        0x000007a6:    0840        @.      LSRS     r0,r0,#1
        0x000007a8:    1aaa        ..      SUBS     r2,r5,r2
        0x000007aa:    d407        ..      BMI      0x7bc ; __aeabi_d2iz + 68
        0x000007ac:    40d0        .@      LSRS     r0,r0,r2
        0x000007ae:    4240        @B      RSBS     r0,r0,#0
        0x000007b0:    2aff        .*      CMP      r2,#0xff
        0x000007b2:    dd01        ..      BLE      0x7b8 ; __aeabi_d2iz + 64
        0x000007b4:    2000        .       MOVS     r0,#0
        0x000007b6:    bd30        0.      POP      {r4,r5,pc}
        0x000007b8:    2800        .(      CMP      r0,#0
        0x000007ba:    ddfc        ..      BLE      0x7b6 ; __aeabi_d2iz + 62
        0x000007bc:    004a        J.      LSLS     r2,r1,#1
        0x000007be:    2b00        .+      CMP      r3,#0
        0x000007c0:    d001        ..      BEQ      0x7c6 ; __aeabi_d2iz + 78
        0x000007c2:    2001        .       MOVS     r0,#1
        0x000007c4:    e000        ..      B        0x7c8 ; __aeabi_d2iz + 80
        0x000007c6:    2000        .       MOVS     r0,#0
        0x000007c8:    1810        ..      ADDS     r0,r2,r0
        0x000007ca:    2201        ."      MOVS     r2,#1
        0x000007cc:    0552        R.      LSLS     r2,r2,#21
        0x000007ce:    42d0        .B      CMN      r0,r2
        0x000007d0:    d8f0        ..      BHI      0x7b4 ; __aeabi_d2iz + 60
        0x000007d2:    17c8        ..      ASRS     r0,r1,#31
        0x000007d4:    43c0        .C      MVNS     r0,r0
        0x000007d6:    4060        `@      EORS     r0,r0,r4
        0x000007d8:    bd30        0.      POP      {r4,r5,pc}
    $d
        0x000007da:    0000        ..      DCW    0
        0x000007dc:    0000041e    ....    DCD    1054
        0x000007e0:    80000000    ....    DCD    2147483648
    $t
    .text
    __aeabi_d2uiz
    _dfixu
        0x000007e4:    4603        .F      MOV      r3,r0
        0x000007e6:    02ca        ..      LSLS     r2,r1,#11
        0x000007e8:    0d40        @.      LSRS     r0,r0,#21
        0x000007ea:    b510        ..      PUSH     {r4,lr}
        0x000007ec:    4310        .C      ORRS     r0,r0,r2
        0x000007ee:    150a        ..      ASRS     r2,r1,#20
        0x000007f0:    d004        ..      BEQ      0x7fc ; __aeabi_d2uiz + 24
        0x000007f2:    2401        .$      MOVS     r4,#1
        0x000007f4:    07e4        ..      LSLS     r4,r4,#31
        0x000007f6:    4320         C      ORRS     r0,r0,r4
        0x000007f8:    2a00        .*      CMP      r2,#0
        0x000007fa:    db05        ..      BLT      0x808 ; __aeabi_d2uiz + 36
        0x000007fc:    4c0a        .L      LDR      r4,[pc,#40] ; [0x828] = 0x41e
        0x000007fe:    1aa2        ..      SUBS     r2,r4,r2
        0x00000800:    d404        ..      BMI      0x80c ; __aeabi_d2uiz + 40
        0x00000802:    40d0        .@      LSRS     r0,r0,r2
        0x00000804:    2aff        .*      CMP      r2,#0xff
        0x00000806:    dd00        ..      BLE      0x80a ; __aeabi_d2uiz + 38
        0x00000808:    2000        .       MOVS     r0,#0
        0x0000080a:    bd10        ..      POP      {r4,pc}
        0x0000080c:    004a        J.      LSLS     r2,r1,#1
        0x0000080e:    2b00        .+      CMP      r3,#0
        0x00000810:    d001        ..      BEQ      0x816 ; __aeabi_d2uiz + 50
        0x00000812:    2001        .       MOVS     r0,#1
        0x00000814:    e000        ..      B        0x818 ; __aeabi_d2uiz + 52
        0x00000816:    2000        .       MOVS     r0,#0
        0x00000818:    1810        ..      ADDS     r0,r2,r0
        0x0000081a:    2201        ."      MOVS     r2,#1
        0x0000081c:    0552        R.      LSLS     r2,r2,#21
        0x0000081e:    42d0        .B      CMN      r0,r2
        0x00000820:    d8f2        ..      BHI      0x808 ; __aeabi_d2uiz + 36
        0x00000822:    17c8        ..      ASRS     r0,r1,#31
        0x00000824:    43c0        .C      MVNS     r0,r0
        0x00000826:    bd10        ..      POP      {r4,pc}
    $d
        0x00000828:    0000041e    ....    DCD    1054
    $t
    .text
    __aeabi_f2d
    _f2d
        0x0000082c:    2101        .!      MOVS     r1,#1
        0x0000082e:    05c9        ..      LSLS     r1,r1,#23
        0x00000830:    2301        .#      MOVS     r3,#1
        0x00000832:    1841        A.      ADDS     r1,r0,r1
        0x00000834:    0042        B.      LSLS     r2,r0,#1
        0x00000836:    061b        ..      LSLS     r3,r3,#24
        0x00000838:    18d3        ..      ADDS     r3,r2,r3
        0x0000083a:    0e5b        [.      LSRS     r3,r3,#25
        0x0000083c:    d00a        ..      BEQ      0x854 ; __aeabi_f2d + 40
        0x0000083e:    10c1        ..      ASRS     r1,r0,#3
        0x00000840:    2207        ."      MOVS     r2,#7
        0x00000842:    06d2        ..      LSLS     r2,r2,#27
        0x00000844:    1889        ..      ADDS     r1,r1,r2
        0x00000846:    0740        @.      LSLS     r0,r0,#29
        0x00000848:    4252        RB      RSBS     r2,r2,#0
        0x0000084a:    42d1        .B      CMN      r1,r2
        0x0000084c:    d501        ..      BPL      0x852 ; __aeabi_f2d + 38
        0x0000084e:    0052        R.      LSLS     r2,r2,#1
        0x00000850:    1889        ..      ADDS     r1,r1,r2
        0x00000852:    4770        pG      BX       lr
        0x00000854:    0209        ..      LSLS     r1,r1,#8
        0x00000856:    d508        ..      BPL      0x86a ; __aeabi_f2d + 62
        0x00000858:    4601        .F      MOV      r1,r0
        0x0000085a:    2a00        .*      CMP      r2,#0
        0x0000085c:    d003        ..      BEQ      0x866 ; __aeabi_f2d + 58
        0x0000085e:    0fc1        ..      LSRS     r1,r0,#31
        0x00000860:    07c9        ..      LSLS     r1,r1,#31
        0x00000862:    2000        .       MOVS     r0,#0
        0x00000864:    4770        pG      BX       lr
        0x00000866:    4610        .F      MOV      r0,r2
        0x00000868:    4770        pG      BX       lr
        0x0000086a:    0242        B.      LSLS     r2,r0,#9
        0x0000086c:    d002        ..      BEQ      0x874 ; __aeabi_f2d + 72
        0x0000086e:    2000        .       MOVS     r0,#0
        0x00000870:    4902        .I      LDR      r1,[pc,#8] ; [0x87c] = 0x7ff80000
        0x00000872:    4770        pG      BX       lr
        0x00000874:    2107        .!      MOVS     r1,#7
        0x00000876:    0509        ..      LSLS     r1,r1,#20
        0x00000878:    4301        .C      ORRS     r1,r1,r0
        0x0000087a:    e7f4        ..      B        0x866 ; __aeabi_f2d + 58
    $d
        0x0000087c:    7ff80000    ....    DCD    2146959360
    $t
    .text
    __aeabi_fdiv
    _fdiv
        0x00000880:    b5f0        ..      PUSH     {r4-r7,lr}
        0x00000882:    25ff        .%      MOVS     r5,#0xff
        0x00000884:    042d        -.      LSLS     r5,r5,#16
        0x00000886:    09c6        ..      LSRS     r6,r0,#7
        0x00000888:    09c2        ..      LSRS     r2,r0,#7
        0x0000088a:    27ff        .'      MOVS     r7,#0xff
        0x0000088c:    4604        .F      MOV      r4,r0
        0x0000088e:    402e        .@      ANDS     r6,r6,r5
        0x00000890:    3701        .7      ADDS     r7,#1
        0x00000892:    09cb        ..      LSRS     r3,r1,#7
        0x00000894:    433e        >C      ORRS     r6,r6,r7
        0x00000896:    4048        H@      EORS     r0,r0,r1
        0x00000898:    402a        *@      ANDS     r2,r2,r5
        0x0000089a:    402b        +@      ANDS     r3,r3,r5
        0x0000089c:    4607        .F      MOV      r7,r0
        0x0000089e:    2a00        .*      CMP      r2,#0
        0x000008a0:    d06b        k.      BEQ      0x97a ; __aeabi_fdiv + 250
        0x000008a2:    2b00        .+      CMP      r3,#0
        0x000008a4:    d069        i.      BEQ      0x97a ; __aeabi_fdiv + 250
        0x000008a6:    42aa        .B      CMP      r2,r5
        0x000008a8:    d067        g.      BEQ      0x97a ; __aeabi_fdiv + 250
        0x000008aa:    42ab        .B      CMP      r3,r5
        0x000008ac:    d065        e.      BEQ      0x97a ; __aeabi_fdiv + 250
        0x000008ae:    2800        .(      CMP      r0,#0
        0x000008b0:    da00        ..      BGE      0x8b4 ; __aeabi_fdiv + 52
        0x000008b2:    4632        2F      MOV      r2,r6
        0x000008b4:    2501        .%      MOVS     r5,#1
        0x000008b6:    05ed        ..      LSLS     r5,r5,#23
        0x000008b8:    4329        )C      ORRS     r1,r1,r5
        0x000008ba:    432c        ,C      ORRS     r4,r4,r5
        0x000008bc:    0209        ..      LSLS     r1,r1,#8
        0x000008be:    0220         .      LSLS     r0,r4,#8
        0x000008c0:    0a09        ..      LSRS     r1,r1,#8
        0x000008c2:    1ad2        ..      SUBS     r2,r2,r3
        0x000008c4:    0c4b        K.      LSRS     r3,r1,#17
        0x000008c6:    247f        .$      MOVS     r4,#0x7f
        0x000008c8:    1ae3        ..      SUBS     r3,r4,r3
        0x000008ca:    4c43        CL      LDR      r4,[pc,#268] ; [0x9d8] = 0x281e
        0x000008cc:    0a00        ..      LSRS     r0,r0,#8
        0x000008ce:    447c        |D      ADD      r4,r4,pc
        0x000008d0:    5ce3        .\      LDRB     r3,[r4,r3]
        0x000008d2:    247d        }$      MOVS     r4,#0x7d
        0x000008d4:    0424        $.      LSLS     r4,r4,#16
        0x000008d6:    1912        ..      ADDS     r2,r2,r4
        0x000008d8:    1414        ..      ASRS     r4,r2,#16
        0x000008da:    005b        [.      LSLS     r3,r3,#1
        0x000008dc:    18a2        ..      ADDS     r2,r4,r2
        0x000008de:    4288        .B      CMP      r0,r1
        0x000008e0:    d301        ..      BCC      0x8e6 ; __aeabi_fdiv + 102
        0x000008e2:    1c52        R.      ADDS     r2,r2,#1
        0x000008e4:    e000        ..      B        0x8e8 ; __aeabi_fdiv + 104
        0x000008e6:    0040        @.      LSLS     r0,r0,#1
        0x000008e8:    4249        IB      RSBS     r1,r1,#0
        0x000008ea:    460c        .F      MOV      r4,r1
        0x000008ec:    435c        \C      MULS     r4,r3,r4
        0x000008ee:    1124        $.      ASRS     r4,r4,#4
        0x000008f0:    435c        \C      MULS     r4,r3,r4
        0x000008f2:    01db        ..      LSLS     r3,r3,#7
        0x000008f4:    1564        d.      ASRS     r4,r4,#21
        0x000008f6:    18e3        ..      ADDS     r3,r4,r3
        0x000008f8:    0a04        ..      LSRS     r4,r0,#8
        0x000008fa:    435c        \C      MULS     r4,r3,r4
        0x000008fc:    02c5        ..      LSLS     r5,r0,#11
        0x000008fe:    0d20         .      LSRS     r0,r4,#20
        0x00000900:    460c        .F      MOV      r4,r1
        0x00000902:    4344        DC      MULS     r4,r0,r4
        0x00000904:    1964        d.      ADDS     r4,r4,r5
        0x00000906:    0a25        %.      LSRS     r5,r4,#8
        0x00000908:    435d        ]C      MULS     r5,r3,r5
        0x0000090a:    0323        #.      LSLS     r3,r4,#12
        0x0000090c:    0cec        ..      LSRS     r4,r5,#19
        0x0000090e:    460d        .F      MOV      r5,r1
        0x00000910:    4365        eC      MULS     r5,r4,r5
        0x00000912:    0300        ..      LSLS     r0,r0,#12
        0x00000914:    1900        ..      ADDS     r0,r0,r4
        0x00000916:    18eb        ..      ADDS     r3,r5,r3
        0x00000918:    424c        LB      RSBS     r4,r1,#0
        0x0000091a:    42a3        .B      CMP      r3,r4
        0x0000091c:    d301        ..      BCC      0x922 ; __aeabi_fdiv + 162
        0x0000091e:    185b        [.      ADDS     r3,r3,r1
        0x00000920:    1c40        @.      ADDS     r0,r0,#1
        0x00000922:    05d4        ..      LSLS     r4,r2,#23
        0x00000924:    1820         .      ADDS     r0,r4,r0
        0x00000926:    2b00        .+      CMP      r3,#0
        0x00000928:    d007        ..      BEQ      0x93a ; __aeabi_fdiv + 186
        0x0000092a:    005b        [.      LSLS     r3,r3,#1
        0x0000092c:    18c9        ..      ADDS     r1,r1,r3
        0x0000092e:    d304        ..      BCC      0x93a ; __aeabi_fdiv + 186
        0x00000930:    1c40        @.      ADDS     r0,r0,#1
        0x00000932:    2900        .)      CMP      r1,#0
        0x00000934:    d101        ..      BNE      0x93a ; __aeabi_fdiv + 186
        0x00000936:    0840        @.      LSRS     r0,r0,#1
        0x00000938:    0040        @.      LSLS     r0,r0,#1
        0x0000093a:    213f        ?!      MOVS     r1,#0x3f
        0x0000093c:    0489        ..      LSLS     r1,r1,#18
        0x0000093e:    428a        .B      CMP      r2,r1
        0x00000940:    d309        ..      BCC      0x956 ; __aeabi_fdiv + 214
        0x00000942:    2a00        .*      CMP      r2,#0
        0x00000944:    dc08        ..      BGT      0x958 ; __aeabi_fdiv + 216
        0x00000946:    0611        ..      LSLS     r1,r2,#24
        0x00000948:    0f09        ..      LSRS     r1,r1,#28
        0x0000094a:    d004        ..      BEQ      0x956 ; __aeabi_fdiv + 214
        0x0000094c:    2103        .!      MOVS     r1,#3
        0x0000094e:    0749        I.      LSLS     r1,r1,#29
        0x00000950:    1840        @.      ADDS     r0,r0,r1
        0x00000952:    0fc0        ..      LSRS     r0,r0,#31
        0x00000954:    07c0        ..      LSLS     r0,r0,#31
        0x00000956:    bdf0        ..      POP      {r4-r7,pc}
        0x00000958:    2201        ."      MOVS     r2,#1
        0x0000095a:    0041        A.      LSLS     r1,r0,#1
        0x0000095c:    0612        ..      LSLS     r2,r2,#24
        0x0000095e:    1889        ..      ADDS     r1,r1,r2
        0x00000960:    227f        ."      MOVS     r2,#0x7f
        0x00000962:    0652        R.      LSLS     r2,r2,#25
        0x00000964:    4291        .B      CMP      r1,r2
        0x00000966:    d2f6        ..      BCS      0x956 ; __aeabi_fdiv + 214
        0x00000968:    2105        .!      MOVS     r1,#5
        0x0000096a:    0749        I.      LSLS     r1,r1,#29
        0x0000096c:    42c8        .B      CMN      r0,r1
        0x0000096e:    d501        ..      BPL      0x974 ; __aeabi_fdiv + 244
        0x00000970:    1090        ..      ASRS     r0,r2,#2
        0x00000972:    bdf0        ..      POP      {r4-r7,pc}
        0x00000974:    20ff        .       MOVS     r0,#0xff
        0x00000976:    05c0        ..      LSLS     r0,r0,#23
        0x00000978:    bdf0        ..      POP      {r4-r7,pc}
        0x0000097a:    2f00        ./      CMP      r7,#0
        0x0000097c:    da00        ..      BGE      0x980 ; __aeabi_fdiv + 256
        0x0000097e:    4632        2F      MOV      r2,r6
        0x00000980:    4816        .H      LDR      r0,[pc,#88] ; [0x9dc] = 0x7fc00000
        0x00000982:    42aa        .B      CMP      r2,r5
        0x00000984:    d207        ..      BCS      0x996 ; __aeabi_fdiv + 278
        0x00000986:    42ab        .B      CMP      r3,r5
        0x00000988:    d205        ..      BCS      0x996 ; __aeabi_fdiv + 278
        0x0000098a:    0219        ..      LSLS     r1,r3,#8
        0x0000098c:    0e09        ..      LSRS     r1,r1,#24
        0x0000098e:    d017        ..      BEQ      0x9c0 ; __aeabi_fdiv + 320
        0x00000990:    0ff8        ..      LSRS     r0,r7,#31
        0x00000992:    07c0        ..      LSLS     r0,r0,#31
        0x00000994:    bdf0        ..      POP      {r4-r7,pc}
        0x00000996:    25ff        .%      MOVS     r5,#0xff
        0x00000998:    0063        c.      LSLS     r3,r4,#1
        0x0000099a:    062d        -.      LSLS     r5,r5,#24
        0x0000099c:    42ab        .B      CMP      r3,r5
        0x0000099e:    d8f9        ..      BHI      0x994 ; __aeabi_fdiv + 276
        0x000009a0:    0049        I.      LSLS     r1,r1,#1
        0x000009a2:    42a9        .B      CMP      r1,r5
        0x000009a4:    d8f6        ..      BHI      0x994 ; __aeabi_fdiv + 276
        0x000009a6:    42ab        .B      CMP      r3,r5
        0x000009a8:    d101        ..      BNE      0x9ae ; __aeabi_fdiv + 302
        0x000009aa:    42a9        .B      CMP      r1,r5
        0x000009ac:    d0f2        ..      BEQ      0x994 ; __aeabi_fdiv + 276
        0x000009ae:    42a9        .B      CMP      r1,r5
        0x000009b0:    d101        ..      BNE      0x9b6 ; __aeabi_fdiv + 310
        0x000009b2:    2100        .!      MOVS     r1,#0
        0x000009b4:    e001        ..      B        0x9ba ; __aeabi_fdiv + 314
        0x000009b6:    0061        a.      LSLS     r1,r4,#1
        0x000009b8:    0849        I.      LSRS     r1,r1,#1
        0x000009ba:    05d0        ..      LSLS     r0,r2,#23
        0x000009bc:    4308        .C      ORRS     r0,r0,r1
        0x000009be:    bdf0        ..      POP      {r4-r7,pc}
        0x000009c0:    0211        ..      LSLS     r1,r2,#8
        0x000009c2:    0e09        ..      LSRS     r1,r1,#24
        0x000009c4:    d0fb        ..      BEQ      0x9be ; __aeabi_fdiv + 318
        0x000009c6:    20ff        .       MOVS     r0,#0xff
        0x000009c8:    4302        .C      ORRS     r2,r2,r0
        0x000009ca:    05d0        ..      LSLS     r0,r2,#23
        0x000009cc:    bdf0        ..      POP      {r4-r7,pc}
    _frdiv
        0x000009ce:    460a        .F      MOV      r2,r1
        0x000009d0:    4601        .F      MOV      r1,r0
        0x000009d2:    4610        .F      MOV      r0,r2
        0x000009d4:    e754        T.      B        __aeabi_fdiv ; 0x880
    $d
        0x000009d6:    0000        ..      DCW    0
        0x000009d8:    0000281e    .(..    DCD    10270
        0x000009dc:    7fc00000    ....    DCD    2143289344
    $t
    .text
    __aeabi_f2iz
    _ffix
        0x000009e0:    b510        ..      PUSH     {r4,lr}
        0x000009e2:    4601        .F      MOV      r1,r0
        0x000009e4:    249e        .$      MOVS     r4,#0x9e
        0x000009e6:    0200        ..      LSLS     r0,r0,#8
        0x000009e8:    15ca        ..      ASRS     r2,r1,#23
        0x000009ea:    07a3        ..      LSLS     r3,r4,#30
        0x000009ec:    2a00        .*      CMP      r2,#0
        0x000009ee:    d002        ..      BEQ      0x9f6 ; __aeabi_f2iz + 22
        0x000009f0:    4318        .C      ORRS     r0,r0,r3
        0x000009f2:    2a00        .*      CMP      r2,#0
        0x000009f4:    db04        ..      BLT      0xa00 ; __aeabi_f2iz + 32
        0x000009f6:    1aa2        ..      SUBS     r2,r4,r2
        0x000009f8:    2a00        .*      CMP      r2,#0
        0x000009fa:    dd0c        ..      BLE      0xa16 ; __aeabi_f2iz + 54
        0x000009fc:    40d0        .@      LSRS     r0,r0,r2
        0x000009fe:    bd10        ..      POP      {r4,pc}
        0x00000a00:    0612        ..      LSLS     r2,r2,#24
        0x00000a02:    0e12        ..      LSRS     r2,r2,#24
        0x00000a04:    d101        ..      BNE      0xa0a ; __aeabi_f2iz + 42
        0x00000a06:    0040        @.      LSLS     r0,r0,#1
        0x00000a08:    0840        @.      LSRS     r0,r0,#1
        0x00000a0a:    1aa2        ..      SUBS     r2,r4,r2
        0x00000a0c:    d403        ..      BMI      0xa16 ; __aeabi_f2iz + 54
        0x00000a0e:    40d0        .@      LSRS     r0,r0,r2
        0x00000a10:    4240        @B      RSBS     r0,r0,#0
        0x00000a12:    2800        .(      CMP      r0,#0
        0x00000a14:    ddf3        ..      BLE      0x9fe ; __aeabi_f2iz + 30
        0x00000a16:    22ff        ."      MOVS     r2,#0xff
        0x00000a18:    0048        H.      LSLS     r0,r1,#1
        0x00000a1a:    0612        ..      LSLS     r2,r2,#24
        0x00000a1c:    4290        .B      CMP      r0,r2
        0x00000a1e:    d901        ..      BLS      0xa24 ; __aeabi_f2iz + 68
        0x00000a20:    2000        .       MOVS     r0,#0
        0x00000a22:    bd10        ..      POP      {r4,pc}
        0x00000a24:    17c8        ..      ASRS     r0,r1,#31
        0x00000a26:    43c0        .C      MVNS     r0,r0
        0x00000a28:    4058        X@      EORS     r0,r0,r3
        0x00000a2a:    bd10        ..      POP      {r4,pc}
    .text
    __aeabi_f2uiz
    _ffixu
        0x00000a2c:    0201        ..      LSLS     r1,r0,#8
        0x00000a2e:    15c2        ..      ASRS     r2,r0,#23
        0x00000a30:    d004        ..      BEQ      0xa3c ; __aeabi_f2uiz + 16
        0x00000a32:    2301        .#      MOVS     r3,#1
        0x00000a34:    07db        ..      LSLS     r3,r3,#31
        0x00000a36:    4319        .C      ORRS     r1,r1,r3
        0x00000a38:    2a00        .*      CMP      r2,#0
        0x00000a3a:    db0a        ..      BLT      0xa52 ; __aeabi_f2uiz + 38
        0x00000a3c:    239e        .#      MOVS     r3,#0x9e
        0x00000a3e:    1a9a        ..      SUBS     r2,r3,r2
        0x00000a40:    d402        ..      BMI      0xa48 ; __aeabi_f2uiz + 28
        0x00000a42:    4608        .F      MOV      r0,r1
        0x00000a44:    40d0        .@      LSRS     r0,r0,r2
        0x00000a46:    4770        pG      BX       lr
        0x00000a48:    22ff        ."      MOVS     r2,#0xff
        0x00000a4a:    0041        A.      LSLS     r1,r0,#1
        0x00000a4c:    0612        ..      LSLS     r2,r2,#24
        0x00000a4e:    4291        .B      CMP      r1,r2
        0x00000a50:    d901        ..      BLS      0xa56 ; __aeabi_f2uiz + 42
        0x00000a52:    2000        .       MOVS     r0,#0
        0x00000a54:    4770        pG      BX       lr
        0x00000a56:    17c0        ..      ASRS     r0,r0,#31
        0x00000a58:    43c0        .C      MVNS     r0,r0
        0x00000a5a:    4770        pG      BX       lr
    .text
    __aeabi_i2f_normalise
        0x00000a5c:    221f        ."      MOVS     r2,#0x1f
        0x00000a5e:    0c03        ..      LSRS     r3,r0,#16
        0x00000a60:    d102        ..      BNE      0xa68 ; __aeabi_i2f_normalise + 12
        0x00000a62:    220f        ."      MOVS     r2,#0xf
        0x00000a64:    0400        ..      LSLS     r0,r0,#16
        0x00000a66:    d01c        ..      BEQ      0xaa2 ; __aeabi_i2f_normalise + 70
        0x00000a68:    0e03        ..      LSRS     r3,r0,#24
        0x00000a6a:    d101        ..      BNE      0xa70 ; __aeabi_i2f_normalise + 20
        0x00000a6c:    0200        ..      LSLS     r0,r0,#8
        0x00000a6e:    3a08        .:      SUBS     r2,r2,#8
        0x00000a70:    0f03        ..      LSRS     r3,r0,#28
        0x00000a72:    d101        ..      BNE      0xa78 ; __aeabi_i2f_normalise + 28
        0x00000a74:    0100        ..      LSLS     r0,r0,#4
        0x00000a76:    1f12        ..      SUBS     r2,r2,#4
        0x00000a78:    0f83        ..      LSRS     r3,r0,#30
        0x00000a7a:    d101        ..      BNE      0xa80 ; __aeabi_i2f_normalise + 36
        0x00000a7c:    0080        ..      LSLS     r0,r0,#2
        0x00000a7e:    1e92        ..      SUBS     r2,r2,#2
        0x00000a80:    2800        .(      CMP      r0,#0
        0x00000a82:    db01        ..      BLT      0xa88 ; __aeabi_i2f_normalise + 44
        0x00000a84:    0040        @.      LSLS     r0,r0,#1
        0x00000a86:    1e52        R.      SUBS     r2,r2,#1
        0x00000a88:    05d2        ..      LSLS     r2,r2,#23
        0x00000a8a:    1851        Q.      ADDS     r1,r2,r1
        0x00000a8c:    1202        ..      ASRS     r2,r0,#8
        0x00000a8e:    1851        Q.      ADDS     r1,r2,r1
        0x00000a90:    2219        ."      MOVS     r2,#0x19
        0x00000a92:    4090        .@      LSLS     r0,r0,r2
        0x00000a94:    d304        ..      BCC      0xaa0 ; __aeabi_i2f_normalise + 68
        0x00000a96:    1c49        I.      ADDS     r1,r1,#1
        0x00000a98:    2800        .(      CMP      r0,#0
        0x00000a9a:    d101        ..      BNE      0xaa0 ; __aeabi_i2f_normalise + 68
        0x00000a9c:    0849        I.      LSRS     r1,r1,#1
        0x00000a9e:    0049        I.      LSLS     r1,r1,#1
        0x00000aa0:    4608        .F      MOV      r0,r1
        0x00000aa2:    4770        pG      BX       lr
    __aeabi_i2f
    _fflt
        0x00000aa4:    0fc1        ..      LSRS     r1,r0,#31
        0x00000aa6:    07c9        ..      LSLS     r1,r1,#31
        0x00000aa8:    d000        ..      BEQ      0xaac ; __aeabi_i2f + 8
        0x00000aaa:    4240        @B      RSBS     r0,r0,#0
        0x00000aac:    2201        ."      MOVS     r2,#1
        0x00000aae:    0792        ..      LSLS     r2,r2,#30
        0x00000ab0:    4311        .C      ORRS     r1,r1,r2
        0x00000ab2:    e7d3        ..      B        __aeabi_i2f_normalise ; 0xa5c
    __aeabi_ui2f
    _ffltu
        0x00000ab4:    2101        .!      MOVS     r1,#1
        0x00000ab6:    0789        ..      LSLS     r1,r1,#30
        0x00000ab8:    e7d0        ..      B        __aeabi_i2f_normalise ; 0xa5c
        0x00000aba:    0000        ..      MOVS     r0,r0
    .text
    __fpl_dcmp_InfNaN
        0x00000abc:    b5f8        ..      PUSH     {r3-r7,lr}
        0x00000abe:    4c22        "L      LDR      r4,[pc,#136] ; [0xb48] = 0xffe00000
        0x00000ac0:    004e        N.      LSLS     r6,r1,#1
        0x00000ac2:    9d06        ..      LDR      r5,[sp,#0x18]
        0x00000ac4:    42a6        .B      CMP      r6,r4
        0x00000ac6:    d80a        ..      BHI      0xade ; __fpl_dcmp_InfNaN + 34
        0x00000ac8:    42a6        .B      CMP      r6,r4
        0x00000aca:    d101        ..      BNE      0xad0 ; __fpl_dcmp_InfNaN + 20
        0x00000acc:    2800        .(      CMP      r0,#0
        0x00000ace:    d106        ..      BNE      0xade ; __fpl_dcmp_InfNaN + 34
        0x00000ad0:    005e        ^.      LSLS     r6,r3,#1
        0x00000ad2:    42a6        .B      CMP      r6,r4
        0x00000ad4:    d803        ..      BHI      0xade ; __fpl_dcmp_InfNaN + 34
        0x00000ad6:    42a6        .B      CMP      r6,r4
        0x00000ad8:    d10a        ..      BNE      0xaf0 ; __fpl_dcmp_InfNaN + 52
        0x00000ada:    2a00        .*      CMP      r2,#0
        0x00000adc:    d008        ..      BEQ      0xaf0 ; __fpl_dcmp_InfNaN + 52
        0x00000ade:    240d        .$      MOVS     r4,#0xd
        0x00000ae0:    0424        $.      LSLS     r4,r4,#16
        0x00000ae2:    4225        %B      TST      r5,r4
        0x00000ae4:    d02c        ,.      BEQ      0xb40 ; __fpl_dcmp_InfNaN + 132
        0x00000ae6:    4629        )F      MOV      r1,r5
        0x00000ae8:    2000        .       MOVS     r0,#0
        0x00000aea:    f000f861    ..a.    BL       __fpl_cmpreturn ; 0xbb0
        0x00000aee:    bdf8        ..      POP      {r3-r7,pc}
        0x00000af0:    460c        .F      MOV      r4,r1
        0x00000af2:    431c        .C      ORRS     r4,r4,r3
        0x00000af4:    d40c        ..      BMI      0xb10 ; __fpl_dcmp_InfNaN + 84
        0x00000af6:    4299        .B      CMP      r1,r3
        0x00000af8:    d002        ..      BEQ      0xb00 ; __fpl_dcmp_InfNaN + 68
        0x00000afa:    f3ef8000    ....    MRS      r0,APSR ; formerly CPSR
        0x00000afe:    bdf8        ..      POP      {r3-r7,pc}
        0x00000b00:    4290        .B      CMP      r0,r2
        0x00000b02:    d002        ..      BEQ      0xb0a ; __fpl_dcmp_InfNaN + 78
        0x00000b04:    f3ef8000    ....    MRS      r0,APSR ; formerly CPSR
        0x00000b08:    bdf8        ..      POP      {r3-r7,pc}
        0x00000b0a:    f3ef8000    ....    MRS      r0,APSR ; formerly CPSR
        0x00000b0e:    bdf8        ..      POP      {r3-r7,pc}
        0x00000b10:    2409        .$      MOVS     r4,#9
        0x00000b12:    0724        $.      LSLS     r4,r4,#28
        0x00000b14:    00e5        ..      LSLS     r5,r4,#3
        0x00000b16:    428b        .B      CMP      r3,r1
        0x00000b18:    d006        ..      BEQ      0xb28 ; __fpl_dcmp_InfNaN + 108
        0x00000b1a:    f3ef8000    ....    MRS      r0,APSR ; formerly CPSR
        0x00000b1e:    43a0        .C      BICS     r0,r0,r4
        0x00000b20:    1a59        Y.      SUBS     r1,r3,r1
        0x00000b22:    d206        ..      BCS      0xb32 ; __fpl_dcmp_InfNaN + 118
        0x00000b24:    4328        (C      ORRS     r0,r0,r5
        0x00000b26:    e004        ..      B        0xb32 ; __fpl_dcmp_InfNaN + 118
        0x00000b28:    1a10        ..      SUBS     r0,r2,r0
        0x00000b2a:    d305        ..      BCC      0xb38 ; __fpl_dcmp_InfNaN + 124
        0x00000b2c:    f3ef8000    ....    MRS      r0,APSR ; formerly CPSR
        0x00000b30:    43a0        .C      BICS     r0,r0,r4
        0x00000b32:    f3808800    ....    MSR      APSR_nzcvq,r0 ; formerly CPSR_f
        0x00000b36:    bdf8        ..      POP      {r3-r7,pc}
        0x00000b38:    f3ef8000    ....    MRS      r0,APSR ; formerly CPSR
        0x00000b3c:    43a0        .C      BICS     r0,r0,r4
        0x00000b3e:    e7f1        ..      B        0xb24 ; __fpl_dcmp_InfNaN + 104
        0x00000b40:    9500        ..      STR      r5,[sp,#0]
        0x00000b42:    f000f84d    ..M.    BL       __fpl_dcheck_NaN2 ; 0xbe0
        0x00000b46:    bdf8        ..      POP      {r3-r7,pc}
    $d
        0x00000b48:    ffe00000    ....    DCD    4292870144
    $t
    .text
    __fpl_fcmp_InfNaN
        0x00000b4c:    b510        ..      PUSH     {r4,lr}
        0x00000b4e:    23ff        .#      MOVS     r3,#0xff
        0x00000b50:    061b        ..      LSLS     r3,r3,#24
        0x00000b52:    0044        D.      LSLS     r4,r0,#1
        0x00000b54:    429c        .B      CMP      r4,r3
        0x00000b56:    d81d        ..      BHI      0xb94 ; __fpl_fcmp_InfNaN + 72
        0x00000b58:    004c        L.      LSLS     r4,r1,#1
        0x00000b5a:    429c        .B      CMP      r4,r3
        0x00000b5c:    d81a        ..      BHI      0xb94 ; __fpl_fcmp_InfNaN + 72
        0x00000b5e:    4603        .F      MOV      r3,r0
        0x00000b60:    4a12        .J      LDR      r2,[pc,#72] ; [0xbac] = 0x90000000
        0x00000b62:    430b        .C      ORRS     r3,r3,r1
        0x00000b64:    d407        ..      BMI      0xb76 ; __fpl_fcmp_InfNaN + 42
        0x00000b66:    1a40        @.      SUBS     r0,r0,r1
        0x00000b68:    d302        ..      BCC      0xb70 ; __fpl_fcmp_InfNaN + 36
        0x00000b6a:    f3ef8000    ....    MRS      r0,APSR ; formerly CPSR
        0x00000b6e:    bd10        ..      POP      {r4,pc}
        0x00000b70:    f3ef8000    ....    MRS      r0,APSR ; formerly CPSR
        0x00000b74:    bd10        ..      POP      {r4,pc}
        0x00000b76:    1a08        ..      SUBS     r0,r1,r0
        0x00000b78:    d206        ..      BCS      0xb88 ; __fpl_fcmp_InfNaN + 60
        0x00000b7a:    f3ef8000    ....    MRS      r0,APSR ; formerly CPSR
        0x00000b7e:    2101        .!      MOVS     r1,#1
        0x00000b80:    4390        .C      BICS     r0,r0,r2
        0x00000b82:    07c9        ..      LSLS     r1,r1,#31
        0x00000b84:    4308        .C      ORRS     r0,r0,r1
        0x00000b86:    e002        ..      B        0xb8e ; __fpl_fcmp_InfNaN + 66
        0x00000b88:    f3ef8000    ....    MRS      r0,APSR ; formerly CPSR
        0x00000b8c:    4390        .C      BICS     r0,r0,r2
        0x00000b8e:    f3808800    ....    MSR      APSR_nzcvq,r0 ; formerly CPSR_f
        0x00000b92:    bd10        ..      POP      {r4,pc}
        0x00000b94:    230d        .#      MOVS     r3,#0xd
        0x00000b96:    041b        ..      LSLS     r3,r3,#16
        0x00000b98:    421a        .B      TST      r2,r3
        0x00000b9a:    d004        ..      BEQ      0xba6 ; __fpl_fcmp_InfNaN + 90
        0x00000b9c:    4611        .F      MOV      r1,r2
        0x00000b9e:    2000        .       MOVS     r0,#0
        0x00000ba0:    f000f806    ....    BL       __fpl_cmpreturn ; 0xbb0
        0x00000ba4:    bd10        ..      POP      {r4,pc}
        0x00000ba6:    f000f825    ..%.    BL       __fpl_fcheck_NaN2 ; 0xbf4
        0x00000baa:    bd10        ..      POP      {r4,pc}
    $d
        0x00000bac:    90000000    ....    DCD    2415919104
    $t
    .text
    __fpl_cmpreturn
        0x00000bb0:    02c8        ..      LSLS     r0,r1,#11
        0x00000bb2:    d512        ..      BPL      0xbda ; __fpl_cmpreturn + 42
        0x00000bb4:    0348        H.      LSLS     r0,r1,#13
        0x00000bb6:    0f40        @.      LSRS     r0,r0,#29
        0x00000bb8:    2800        .(      CMP      r0,#0
        0x00000bba:    d004        ..      BEQ      0xbc6 ; __fpl_cmpreturn + 22
        0x00000bbc:    03c8        ..      LSLS     r0,r1,#15
        0x00000bbe:    43c0        .C      MVNS     r0,r0
        0x00000bc0:    2101        .!      MOVS     r1,#1
        0x00000bc2:    4088        .@      LSLS     r0,r0,r1
        0x00000bc4:    4770        pG      BX       lr
        0x00000bc6:    f3ef8000    ....    MRS      r0,APSR ; formerly CPSR
        0x00000bca:    0100        ..      LSLS     r0,r0,#4
        0x00000bcc:    0900        ..      LSRS     r0,r0,#4
        0x00000bce:    2103        .!      MOVS     r1,#3
        0x00000bd0:    0709        ..      LSLS     r1,r1,#28
        0x00000bd2:    4308        .C      ORRS     r0,r0,r1
        0x00000bd4:    f3808800    ....    MSR      APSR_nzcvq,r0 ; formerly CPSR_f
        0x00000bd8:    4770        pG      BX       lr
        0x00000bda:    2000        .       MOVS     r0,#0
        0x00000bdc:    4770        pG      BX       lr
        0x00000bde:    0000        ..      MOVS     r0,r0
    .text
    __fpl_dcheck_NaN2
        0x00000be0:    b510        ..      PUSH     {r4,lr}
        0x00000be2:    2000        .       MOVS     r0,#0
        0x00000be4:    4902        .I      LDR      r1,[pc,#8] ; [0xbf0] = 0x7ff80000
        0x00000be6:    9a02        ..      LDR      r2,[sp,#8]
        0x00000be8:    f000f833    ..3.    BL       __fpl_return_NaN ; 0xc52
        0x00000bec:    bd10        ..      POP      {r4,pc}
    $d
        0x00000bee:    0000        ..      DCW    0
        0x00000bf0:    7ff80000    ....    DCD    2146959360
    $t
    .text
    __fpl_fcheck_NaN2
        0x00000bf4:    b510        ..      PUSH     {r4,lr}
        0x00000bf6:    4802        .H      LDR      r0,[pc,#8] ; [0xc00] = 0x7fc00000
        0x00000bf8:    f000f82b    ..+.    BL       __fpl_return_NaN ; 0xc52
        0x00000bfc:    bd10        ..      POP      {r4,pc}
    $d
        0x00000bfe:    0000        ..      DCW    0
        0x00000c00:    7fc00000    ....    DCD    2143289344
    $t
    .text
    __user_setup_stackheap
        0x00000c04:    4675        uF      MOV      r5,lr
        0x00000c06:    f000f853    ..S.    BL       __user_libspace ; 0xcb0
        0x00000c0a:    46ae        .F      MOV      lr,r5
        0x00000c0c:    0005        ..      MOVS     r5,r0
        0x00000c0e:    4669        iF      MOV      r1,sp
        0x00000c10:    4653        SF      MOV      r3,r10
        0x00000c12:    08c0        ..      LSRS     r0,r0,#3
        0x00000c14:    00c0        ..      LSLS     r0,r0,#3
        0x00000c16:    4685        .F      MOV      sp,r0
        0x00000c18:    b018        ..      ADD      sp,sp,#0x60
        0x00000c1a:    b520         .      PUSH     {r5,lr}
        0x00000c1c:    f7fffae0    ....    BL       __user_initial_stackheap ; 0x1e0
        0x00000c20:    bc60        `.      POP      {r5,r6}
        0x00000c22:    2700        .'      MOVS     r7,#0
        0x00000c24:    0849        I.      LSRS     r1,r1,#1
        0x00000c26:    46b6        .F      MOV      lr,r6
        0x00000c28:    2600        .&      MOVS     r6,#0
        0x00000c2a:    c5c0        ..      STM      r5!,{r6,r7}
        0x00000c2c:    c5c0        ..      STM      r5!,{r6,r7}
        0x00000c2e:    c5c0        ..      STM      r5!,{r6,r7}
        0x00000c30:    c5c0        ..      STM      r5!,{r6,r7}
        0x00000c32:    c5c0        ..      STM      r5!,{r6,r7}
        0x00000c34:    c5c0        ..      STM      r5!,{r6,r7}
        0x00000c36:    c5c0        ..      STM      r5!,{r6,r7}
        0x00000c38:    c5c0        ..      STM      r5!,{r6,r7}
        0x00000c3a:    3d40        @=      SUBS     r5,r5,#0x40
        0x00000c3c:    0049        I.      LSLS     r1,r1,#1
        0x00000c3e:    468d        .F      MOV      sp,r1
        0x00000c40:    4770        pG      BX       lr
    .text
    exit
        0x00000c42:    b510        ..      PUSH     {r4,lr}
        0x00000c44:    4604        .F      MOV      r4,r0
        0x00000c46:    46c0        .F      MOV      r8,r8
        0x00000c48:    46c0        .F      MOV      r8,r8
        0x00000c4a:    4620         F      MOV      r0,r4
        0x00000c4c:    f7fffa6b    ..k.    BL       __rt_exit ; 0x126
        0x00000c50:    bd10        ..      POP      {r4,pc}
    .text
    __fpl_return_NaN
        0x00000c52:    b510        ..      PUSH     {r4,lr}
        0x00000c54:    460c        .F      MOV      r4,r1
        0x00000c56:    0711        ..      LSLS     r1,r2,#28
        0x00000c58:    0f09        ..      LSRS     r1,r1,#28
        0x00000c5a:    2909        .)      CMP      r1,#9
        0x00000c5c:    d004        ..      BEQ      0xc68 ; __fpl_return_NaN + 22
        0x00000c5e:    290a        .)      CMP      r1,#0xa
        0x00000c60:    d00a        ..      BEQ      0xc78 ; __fpl_return_NaN + 38
        0x00000c62:    2908        .)      CMP      r1,#8
        0x00000c64:    d10c        ..      BNE      0xc80 ; __fpl_return_NaN + 46
        0x00000c66:    e004        ..      B        0xc72 ; __fpl_return_NaN + 32
        0x00000c68:    4611        .F      MOV      r1,r2
        0x00000c6a:    2008        .       MOVS     r0,#8
        0x00000c6c:    f7ffffa0    ....    BL       __fpl_cmpreturn ; 0xbb0
        0x00000c70:    e006        ..      B        0xc80 ; __fpl_return_NaN + 46
        0x00000c72:    0651        Q.      LSLS     r1,r2,#25
        0x00000c74:    d506        ..      BPL      0xc84 ; __fpl_return_NaN + 50
        0x00000c76:    e001        ..      B        0xc7c ; __fpl_return_NaN + 42
        0x00000c78:    0651        Q.      LSLS     r1,r2,#25
        0x00000c7a:    d501        ..      BPL      0xc80 ; __fpl_return_NaN + 46
        0x00000c7c:    2001        .       MOVS     r0,#1
        0x00000c7e:    07c0        ..      LSLS     r0,r0,#31
        0x00000c80:    4621        !F      MOV      r1,r4
        0x00000c82:    bd10        ..      POP      {r4,pc}
        0x00000c84:    06d1        ..      LSLS     r1,r2,#27
        0x00000c86:    d507        ..      BPL      0xc98 ; __fpl_return_NaN + 70
        0x00000c88:    0101        ..      LSLS     r1,r0,#4
        0x00000c8a:    0909        ..      LSRS     r1,r1,#4
        0x00000c8c:    08cc        ..      LSRS     r4,r1,#3
        0x00000c8e:    0749        I.      LSLS     r1,r1,#29
        0x00000c90:    0e00        ..      LSRS     r0,r0,#24
        0x00000c92:    0600        ..      LSLS     r0,r0,#24
        0x00000c94:    4304        .C      ORRS     r4,r4,r0
        0x00000c96:    e009        ..      B        0xcac ; __fpl_return_NaN + 90
        0x00000c98:    0f41        A.      LSRS     r1,r0,#29
        0x00000c9a:    0220         .      LSLS     r0,r4,#8
        0x00000c9c:    0749        I.      LSLS     r1,r1,#29
        0x00000c9e:    0a00        ..      LSRS     r0,r0,#8
        0x00000ca0:    4301        .C      ORRS     r1,r1,r0
        0x00000ca2:    0e20         .      LSRS     r0,r4,#24
        0x00000ca4:    0600        ..      LSLS     r0,r0,#24
        0x00000ca6:    221d        ."      MOVS     r2,#0x1d
        0x00000ca8:    41d1        .A      RORS     r1,r1,r2
        0x00000caa:    4301        .C      ORRS     r1,r1,r0
        0x00000cac:    4608        .F      MOV      r0,r1
        0x00000cae:    e7e7        ..      B        0xc80 ; __fpl_return_NaN + 46
    .text
    __user_libspace
    __user_perproc_libspace
    __user_perthread_libspace
        0x00000cb0:    4800        .H      LDR      r0,[pc,#0] ; [0xcb4] = 0x20002264
        0x00000cb2:    4770        pG      BX       lr
    $d
        0x00000cb4:    20002264    d".     DCD    536879716
    $t
    .text
    _sys_exit
        0x00000cb8:    4901        .I      LDR      r1,[pc,#4] ; [0xcc0] = 0x20026
        0x00000cba:    2018        .       MOVS     r0,#0x18
        0x00000cbc:    beab        ..      BKPT     #0xab
        0x00000cbe:    e7fe        ..      B        0xcbe ; _sys_exit + 6
    $d
        0x00000cc0:    00020026    &...    DCD    131110
    $t
    .text
    __I$use$semihosting
    __use_no_semihosting_swi
        0x00000cc4:    4770        pG      BX       lr
    .text
    __semihosting_library_function
        0x00000cc6:    0000        ..      MOVS     r0,r0
    i.Bubbling
    Bubbling
        0x00000cc8:    b5f0        ..      PUSH     {r4-r7,lr}
        0x00000cca:    4602        .F      MOV      r2,r0
        0x00000ccc:    2300        .#      MOVS     r3,#0
        0x00000cce:    e029        ).      B        0xd24 ; Bubbling + 92
        0x00000cd0:    2101        .!      MOVS     r1,#1
        0x00000cd2:    e022        ".      B        0xd1a ; Bubbling + 82
        0x00000cd4:    0088        ..      LSLS     r0,r1,#2
        0x00000cd6:    5816        .X      LDR      r6,[r2,r0]
        0x00000cd8:    1e48        H.      SUBS     r0,r1,#1
        0x00000cda:    0080        ..      LSLS     r0,r0,#2
        0x00000cdc:    5810        .X      LDR      r0,[r2,r0]
        0x00000cde:    4286        .B      CMP      r6,r0
        0x00000ce0:    da1a        ..      BGE      0xd18 ; Bubbling + 80
        0x00000ce2:    0088        ..      LSLS     r0,r1,#2
        0x00000ce4:    5814        .X      LDR      r4,[r2,r0]
        0x00000ce6:    1e48        H.      SUBS     r0,r1,#1
        0x00000ce8:    0080        ..      LSLS     r0,r0,#2
        0x00000cea:    5810        .X      LDR      r0,[r2,r0]
        0x00000cec:    008e        ..      LSLS     r6,r1,#2
        0x00000cee:    5190        .Q      STR      r0,[r2,r6]
        0x00000cf0:    1e48        H.      SUBS     r0,r1,#1
        0x00000cf2:    0080        ..      LSLS     r0,r0,#2
        0x00000cf4:    5014        .P      STR      r4,[r2,r0]
        0x00000cf6:    0108        ..      LSLS     r0,r1,#4
        0x00000cf8:    4e0c        .N      LDR      r6,[pc,#48] ; [0xd2c] = 0x20002154
        0x00000cfa:    1980        ..      ADDS     r0,r0,r6
        0x00000cfc:    6845        Eh      LDR      r5,[r0,#4]
        0x00000cfe:    1e48        H.      SUBS     r0,r1,#1
        0x00000d00:    0100        ..      LSLS     r0,r0,#4
        0x00000d02:    1980        ..      ADDS     r0,r0,r6
        0x00000d04:    6840        @h      LDR      r0,[r0,#4]
        0x00000d06:    010e        ..      LSLS     r6,r1,#4
        0x00000d08:    4f08        .O      LDR      r7,[pc,#32] ; [0xd2c] = 0x20002154
        0x00000d0a:    19f6        ..      ADDS     r6,r6,r7
        0x00000d0c:    6070        p`      STR      r0,[r6,#4]
        0x00000d0e:    1e48        H.      SUBS     r0,r1,#1
        0x00000d10:    0100        ..      LSLS     r0,r0,#4
        0x00000d12:    463e        >F      MOV      r6,r7
        0x00000d14:    1980        ..      ADDS     r0,r0,r6
        0x00000d16:    6045        E`      STR      r5,[r0,#4]
        0x00000d18:    1c49        I.      ADDS     r1,r1,#1
        0x00000d1a:    2010        .       MOVS     r0,#0x10
        0x00000d1c:    1ac0        ..      SUBS     r0,r0,r3
        0x00000d1e:    4288        .B      CMP      r0,r1
        0x00000d20:    dcd8        ..      BGT      0xcd4 ; Bubbling + 12
        0x00000d22:    1c5b        [.      ADDS     r3,r3,#1
        0x00000d24:    2b10        .+      CMP      r3,#0x10
        0x00000d26:    dbd3        ..      BLT      0xcd0 ; Bubbling + 8
        0x00000d28:    6810        .h      LDR      r0,[r2,#0]
        0x00000d2a:    bdf0        ..      POP      {r4-r7,pc}
    $d
        0x00000d2c:    20002154    T!.     DCD    536879444
    $t
    i.ChannelSelection_control
    ChannelSelection_control
        0x00000d30:    b570        p.      PUSH     {r4-r6,lr}
        0x00000d32:    4604        .F      MOV      r4,r0
        0x00000d34:    2500        .%      MOVS     r5,#0
        0x00000d36:    2c41        A,      CMP      r4,#0x41
        0x00000d38:    d10b        ..      BNE      0xd52 ; ChannelSelection_control + 34
        0x00000d3a:    2001        .       MOVS     r0,#1
        0x00000d3c:    49f9        .I      LDR      r1,[pc,#996] ; [0x1124] = 0x20000008
        0x00000d3e:    6008        .`      STR      r0,[r1,#0]
        0x00000d40:    f001fe6e    ..n.    BL       Start_FM_command ; 0x2a20
        0x00000d44:    a0f8        ..      ADR      r0,{pc}+0x3e4 ; 0x1128
        0x00000d46:    f001fee9    ....    BL       UARTString ; 0x2b1c
        0x00000d4a:    200a        .       MOVS     r0,#0xa
        0x00000d4c:    f001fef8    ....    BL       WriteUART ; 0x2b40
        0x00000d50:    e3fd        ..      B        0x154e ; ChannelSelection_control + 2078
        0x00000d52:    2c42        B,      CMP      r4,#0x42
        0x00000d54:    d10b        ..      BNE      0xd6e ; ChannelSelection_control + 62
        0x00000d56:    2000        .       MOVS     r0,#0
        0x00000d58:    49f2        .I      LDR      r1,[pc,#968] ; [0x1124] = 0x20000008
        0x00000d5a:    6008        .`      STR      r0,[r1,#0]
        0x00000d5c:    f001fe65    ..e.    BL       Stop_FM_command ; 0x2a2a
        0x00000d60:    a0f6        ..      ADR      r0,{pc}+0x3dc ; 0x113c
        0x00000d62:    f001fedb    ....    BL       UARTString ; 0x2b1c
        0x00000d66:    200a        .       MOVS     r0,#0xa
        0x00000d68:    f001feea    ....    BL       WriteUART ; 0x2b40
        0x00000d6c:    e7f0        ..      B        0xd50 ; ChannelSelection_control + 32
        0x00000d6e:    2c43        C,      CMP      r4,#0x43
        0x00000d70:    d107        ..      BNE      0xd82 ; ChannelSelection_control + 82
        0x00000d72:    f001ffef    ....    BL       singleFrequencyRSSI ; 0x2d54
        0x00000d76:    a0f6        ..      ADR      r0,{pc}+0x3da ; 0x1150
        0x00000d78:    f001fed0    ....    BL       UARTString ; 0x2b1c
        0x00000d7c:    f001fe12    ....    BL       RSSI_scan_cmd ; 0x29a4
        0x00000d80:    e7e6        ..      B        0xd50 ; ChannelSelection_control + 32
        0x00000d82:    2c55        U,      CMP      r4,#0x55
        0x00000d84:    d113        ..      BNE      0xdae ; ChannelSelection_control + 126
        0x00000d86:    48e7        .H      LDR      r0,[pc,#924] ; [0x1124] = 0x20000008
        0x00000d88:    6800        .h      LDR      r0,[r0,#0]
        0x00000d8a:    2801        .(      CMP      r0,#1
        0x00000d8c:    d108        ..      BNE      0xda0 ; ChannelSelection_control + 112
        0x00000d8e:    a0f6        ..      ADR      r0,{pc}+0x3da ; 0x1168
        0x00000d90:    f001fec4    ....    BL       UARTString ; 0x2b1c
        0x00000d94:    200a        .       MOVS     r0,#0xa
        0x00000d96:    f001fed3    ....    BL       WriteUART ; 0x2b40
        0x00000d9a:    f001faed    ....    BL       IQ_Dump_command ; 0x2378
        0x00000d9e:    e7d7        ..      B        0xd50 ; ChannelSelection_control + 32
        0x00000da0:    a0f8        ..      ADR      r0,{pc}+0x3e4 ; 0x1184
        0x00000da2:    f001febb    ....    BL       UARTString ; 0x2b1c
        0x00000da6:    200a        .       MOVS     r0,#0xa
        0x00000da8:    f001feca    ....    BL       WriteUART ; 0x2b40
        0x00000dac:    e7d0        ..      B        0xd50 ; ChannelSelection_control + 32
        0x00000dae:    2c75        u,      CMP      r4,#0x75
        0x00000db0:    d113        ..      BNE      0xdda ; ChannelSelection_control + 170
        0x00000db2:    48dc        .H      LDR      r0,[pc,#880] ; [0x1124] = 0x20000008
        0x00000db4:    6800        .h      LDR      r0,[r0,#0]
        0x00000db6:    2801        .(      CMP      r0,#1
        0x00000db8:    d108        ..      BNE      0xdcc ; ChannelSelection_control + 156
        0x00000dba:    a0fe        ..      ADR      r0,{pc}+0x3fa ; 0x11b4
        0x00000dbc:    f001feae    ....    BL       UARTString ; 0x2b1c
        0x00000dc0:    200a        .       MOVS     r0,#0xa
        0x00000dc2:    f001febd    ....    BL       WriteUART ; 0x2b40
        0x00000dc6:    f001fad2    ....    BL       Demodulated_Data_Dump_command ; 0x236e
        0x00000dca:    e7c1        ..      B        0xd50 ; ChannelSelection_control + 32
        0x00000dcc:    a0ed        ..      ADR      r0,{pc}+0x3b8 ; 0x1184
        0x00000dce:    f001fea5    ....    BL       UARTString ; 0x2b1c
        0x00000dd2:    200a        .       MOVS     r0,#0xa
        0x00000dd4:    f001feb4    ....    BL       WriteUART ; 0x2b40
        0x00000dd8:    e7ba        ..      B        0xd50 ; ChannelSelection_control + 32
        0x00000dda:    2c47        G,      CMP      r4,#0x47
        0x00000ddc:    d114        ..      BNE      0xe08 ; ChannelSelection_control + 216
        0x00000dde:    48d1        .H      LDR      r0,[pc,#836] ; [0x1124] = 0x20000008
        0x00000de0:    6800        .h      LDR      r0,[r0,#0]
        0x00000de2:    2801        .(      CMP      r0,#1
        0x00000de4:    d109        ..      BNE      0xdfa ; ChannelSelection_control + 202
        0x00000de6:    2002        .       MOVS     r0,#2
        0x00000de8:    49ce        .I      LDR      r1,[pc,#824] ; [0x1124] = 0x20000008
        0x00000dea:    6008        .`      STR      r0,[r1,#0]
        0x00000dec:    a0f8        ..      ADR      r0,{pc}+0x3e4 ; 0x11d0
        0x00000dee:    f001fe95    ....    BL       UARTString ; 0x2b1c
        0x00000df2:    200a        .       MOVS     r0,#0xa
        0x00000df4:    f001fea4    ....    BL       WriteUART ; 0x2b40
        0x00000df8:    e7aa        ..      B        0xd50 ; ChannelSelection_control + 32
        0x00000dfa:    a0e2        ..      ADR      r0,{pc}+0x38a ; 0x1184
        0x00000dfc:    f001fe8e    ....    BL       UARTString ; 0x2b1c
        0x00000e00:    200a        .       MOVS     r0,#0xa
        0x00000e02:    f001fe9d    ....    BL       WriteUART ; 0x2b40
        0x00000e06:    e7a3        ..      B        0xd50 ; ChannelSelection_control + 32
        0x00000e08:    2c49        I,      CMP      r4,#0x49
        0x00000e0a:    d114        ..      BNE      0xe36 ; ChannelSelection_control + 262
        0x00000e0c:    48c5        .H      LDR      r0,[pc,#788] ; [0x1124] = 0x20000008
        0x00000e0e:    6800        .h      LDR      r0,[r0,#0]
        0x00000e10:    2801        .(      CMP      r0,#1
        0x00000e12:    d109        ..      BNE      0xe28 ; ChannelSelection_control + 248
        0x00000e14:    2003        .       MOVS     r0,#3
        0x00000e16:    49c3        .I      LDR      r1,[pc,#780] ; [0x1124] = 0x20000008
        0x00000e18:    6008        .`      STR      r0,[r1,#0]
        0x00000e1a:    a0f6        ..      ADR      r0,{pc}+0x3da ; 0x11f4
        0x00000e1c:    f001fe7e    ..~.    BL       UARTString ; 0x2b1c
        0x00000e20:    200a        .       MOVS     r0,#0xa
        0x00000e22:    f001fe8d    ....    BL       WriteUART ; 0x2b40
        0x00000e26:    e793        ..      B        0xd50 ; ChannelSelection_control + 32
        0x00000e28:    a0d6        ..      ADR      r0,{pc}+0x35c ; 0x1184
        0x00000e2a:    f001fe77    ..w.    BL       UARTString ; 0x2b1c
        0x00000e2e:    200a        .       MOVS     r0,#0xa
        0x00000e30:    f001fe86    ....    BL       WriteUART ; 0x2b40
        0x00000e34:    e78c        ..      B        0xd50 ; ChannelSelection_control + 32
        0x00000e36:    2c46        F,      CMP      r4,#0x46
        0x00000e38:    d114        ..      BNE      0xe64 ; ChannelSelection_control + 308
        0x00000e3a:    48ba        .H      LDR      r0,[pc,#744] ; [0x1124] = 0x20000008
        0x00000e3c:    6800        .h      LDR      r0,[r0,#0]
        0x00000e3e:    2801        .(      CMP      r0,#1
        0x00000e40:    d109        ..      BNE      0xe56 ; ChannelSelection_control + 294
        0x00000e42:    2004        .       MOVS     r0,#4
        0x00000e44:    49b7        .I      LDR      r1,[pc,#732] ; [0x1124] = 0x20000008
        0x00000e46:    6008        .`      STR      r0,[r1,#0]
        0x00000e48:    a0f6        ..      ADR      r0,{pc}+0x3dc ; 0x1224
        0x00000e4a:    f001fe67    ..g.    BL       UARTString ; 0x2b1c
        0x00000e4e:    200a        .       MOVS     r0,#0xa
        0x00000e50:    f001fe76    ..v.    BL       WriteUART ; 0x2b40
        0x00000e54:    e77c        |.      B        0xd50 ; ChannelSelection_control + 32
        0x00000e56:    a0cb        ..      ADR      r0,{pc}+0x32e ; 0x1184
        0x00000e58:    f001fe60    ..`.    BL       UARTString ; 0x2b1c
        0x00000e5c:    200a        .       MOVS     r0,#0xa
        0x00000e5e:    f001fe6f    ..o.    BL       WriteUART ; 0x2b40
        0x00000e62:    e775        u.      B        0xd50 ; ChannelSelection_control + 32
        0x00000e64:    2c66        f,      CMP      r4,#0x66
        0x00000e66:    d114        ..      BNE      0xe92 ; ChannelSelection_control + 354
        0x00000e68:    48ae        .H      LDR      r0,[pc,#696] ; [0x1124] = 0x20000008
        0x00000e6a:    6800        .h      LDR      r0,[r0,#0]
        0x00000e6c:    2801        .(      CMP      r0,#1
        0x00000e6e:    d109        ..      BNE      0xe84 ; ChannelSelection_control + 340
        0x00000e70:    2005        .       MOVS     r0,#5
        0x00000e72:    49ac        .I      LDR      r1,[pc,#688] ; [0x1124] = 0x20000008
        0x00000e74:    6008        .`      STR      r0,[r1,#0]
        0x00000e76:    a0f7        ..      ADR      r0,{pc}+0x3de ; 0x1254
        0x00000e78:    f001fe50    ..P.    BL       UARTString ; 0x2b1c
        0x00000e7c:    200a        .       MOVS     r0,#0xa
        0x00000e7e:    f001fe5f    .._.    BL       WriteUART ; 0x2b40
        0x00000e82:    e765        e.      B        0xd50 ; ChannelSelection_control + 32
        0x00000e84:    a0bf        ..      ADR      r0,{pc}+0x300 ; 0x1184
        0x00000e86:    f001fe49    ..I.    BL       UARTString ; 0x2b1c
        0x00000e8a:    200a        .       MOVS     r0,#0xa
        0x00000e8c:    f001fe58    ..X.    BL       WriteUART ; 0x2b40
        0x00000e90:    e75e        ^.      B        0xd50 ; ChannelSelection_control + 32
        0x00000e92:    2c2b        +,      CMP      r4,#0x2b
        0x00000e94:    d173        s.      BNE      0xf7e ; ChannelSelection_control + 590
        0x00000e96:    48a3        .H      LDR      r0,[pc,#652] ; [0x1124] = 0x20000008
        0x00000e98:    6800        .h      LDR      r0,[r0,#0]
        0x00000e9a:    2802        .(      CMP      r0,#2
        0x00000e9c:    d137        7.      BNE      0xf0e ; ChannelSelection_control + 478
        0x00000e9e:    48f9        .H      LDR      r0,[pc,#996] ; [0x1284] = 0x2000000c
        0x00000ea0:    6800        .h      LDR      r0,[r0,#0]
        0x00000ea2:    2800        .(      CMP      r0,#0
        0x00000ea4:    d02c        ,.      BEQ      0xf00 ; ChannelSelection_control + 464
        0x00000ea6:    48f7        .H      LDR      r0,[pc,#988] ; [0x1284] = 0x2000000c
        0x00000ea8:    6800        .h      LDR      r0,[r0,#0]
        0x00000eaa:    1e40        @.      SUBS     r0,r0,#1
        0x00000eac:    49f5        .I      LDR      r1,[pc,#980] ; [0x1284] = 0x2000000c
        0x00000eae:    6008        .`      STR      r0,[r1,#0]
        0x00000eb0:    4608        .F      MOV      r0,r1
        0x00000eb2:    6800        .h      LDR      r0,[r0,#0]
        0x00000eb4:    0100        ..      LSLS     r0,r0,#4
        0x00000eb6:    49f4        .I      LDR      r1,[pc,#976] ; [0x1288] = 0x16001
        0x00000eb8:    1840        @.      ADDS     r0,r0,r1
        0x00000eba:    49f4        .I      LDR      r1,[pc,#976] ; [0x128c] = 0x2000001c
        0x00000ebc:    6008        .`      STR      r0,[r1,#0]
        0x00000ebe:    4608        .F      MOV      r0,r1
        0x00000ec0:    6800        .h      LDR      r0,[r0,#0]
        0x00000ec2:    f001fd7f    ....    BL       SPI_RFD ; 0x29c4
        0x00000ec6:    a0f2        ..      ADR      r0,{pc}+0x3ca ; 0x1290
        0x00000ec8:    f001fe28    ..(.    BL       UARTString ; 0x2b1c
        0x00000ecc:    48ef        .H      LDR      r0,[pc,#956] ; [0x128c] = 0x2000001c
        0x00000ece:    6800        .h      LDR      r0,[r0,#0]
        0x00000ed0:    f001fea6    ....    BL       int_to_str ; 0x2c20
        0x00000ed4:    4606        .F      MOV      r6,r0
        0x00000ed6:    4630        0F      MOV      r0,r6
        0x00000ed8:    f001fe20    .. .    BL       UARTString ; 0x2b1c
        0x00000edc:    200a        .       MOVS     r0,#0xa
        0x00000ede:    f001fe2f    ../.    BL       WriteUART ; 0x2b40
        0x00000ee2:    a0f1        ..      ADR      r0,{pc}+0x3c6 ; 0x12a8
        0x00000ee4:    f001fe1a    ....    BL       UARTString ; 0x2b1c
        0x00000ee8:    48e6        .H      LDR      r0,[pc,#920] ; [0x1284] = 0x2000000c
        0x00000eea:    6800        .h      LDR      r0,[r0,#0]
        0x00000eec:    f001fe98    ....    BL       int_to_str ; 0x2c20
        0x00000ef0:    4606        .F      MOV      r6,r0
        0x00000ef2:    4630        0F      MOV      r0,r6
        0x00000ef4:    f001fe12    ....    BL       UARTString ; 0x2b1c
        0x00000ef8:    200a        .       MOVS     r0,#0xa
        0x00000efa:    f001fe21    ..!.    BL       WriteUART ; 0x2b40
        0x00000efe:    e727        '.      B        0xd50 ; ChannelSelection_control + 32
        0x00000f00:    a0ef        ..      ADR      r0,{pc}+0x3c0 ; 0x12c0
        0x00000f02:    f001fe0b    ....    BL       UARTString ; 0x2b1c
        0x00000f06:    200a        .       MOVS     r0,#0xa
        0x00000f08:    f001fe1a    ....    BL       WriteUART ; 0x2b40
        0x00000f0c:    e720         .      B        0xd50 ; ChannelSelection_control + 32
        0x00000f0e:    4885        .H      LDR      r0,[pc,#532] ; [0x1124] = 0x20000008
        0x00000f10:    6800        .h      LDR      r0,[r0,#0]
        0x00000f12:    2803        .(      CMP      r0,#3
        0x00000f14:    d13b        ;.      BNE      0xf8e ; ChannelSelection_control + 606
        0x00000f16:    48f1        .H      LDR      r0,[pc,#964] ; [0x12dc] = 0x20000010
        0x00000f18:    6800        .h      LDR      r0,[r0,#0]
        0x00000f1a:    2824        $(      CMP      r0,#0x24
        0x00000f1c:    d230        0.      BCS      0xf80 ; ChannelSelection_control + 592
        0x00000f1e:    48ef        .H      LDR      r0,[pc,#956] ; [0x12dc] = 0x20000010
        0x00000f20:    6800        .h      LDR      r0,[r0,#0]
        0x00000f22:    1c40        @.      ADDS     r0,r0,#1
        0x00000f24:    49ed        .I      LDR      r1,[pc,#948] ; [0x12dc] = 0x20000010
        0x00000f26:    6008        .`      STR      r0,[r1,#0]
        0x00000f28:    4608        .F      MOV      r0,r1
        0x00000f2a:    8800        ..      LDRH     r0,[r0,#0]
        0x00000f2c:    0400        ..      LSLS     r0,r0,#16
        0x00000f2e:    49ec        .I      LDR      r1,[pc,#944] ; [0x12e0] = 0x20000014
        0x00000f30:    6809        .h      LDR      r1,[r1,#0]
        0x00000f32:    0109        ..      LSLS     r1,r1,#4
        0x00000f34:    1840        @.      ADDS     r0,r0,r1
        0x00000f36:    1c80        ..      ADDS     r0,r0,#2
        0x00000f38:    49ea        .I      LDR      r1,[pc,#936] ; [0x12e4] = 0x20000020
        0x00000f3a:    6008        .`      STR      r0,[r1,#0]
        0x00000f3c:    4608        .F      MOV      r0,r1
        0x00000f3e:    6800        .h      LDR      r0,[r0,#0]
        0x00000f40:    f001fd40    ..@.    BL       SPI_RFD ; 0x29c4
        0x00000f44:    a0e8        ..      ADR      r0,{pc}+0x3a4 ; 0x12e8
        0x00000f46:    f001fde9    ....    BL       UARTString ; 0x2b1c
        0x00000f4a:    48e4        .H      LDR      r0,[pc,#912] ; [0x12dc] = 0x20000010
        0x00000f4c:    6800        .h      LDR      r0,[r0,#0]
        0x00000f4e:    f001fe67    ..g.    BL       int_to_str ; 0x2c20
        0x00000f52:    4606        .F      MOV      r6,r0
        0x00000f54:    4630        0F      MOV      r0,r6
        0x00000f56:    f001fde1    ....    BL       UARTString ; 0x2b1c
        0x00000f5a:    200a        .       MOVS     r0,#0xa
        0x00000f5c:    f001fdf0    ....    BL       WriteUART ; 0x2b40
        0x00000f60:    a0e6        ..      ADR      r0,{pc}+0x39c ; 0x12fc
        0x00000f62:    f001fddb    ....    BL       UARTString ; 0x2b1c
        0x00000f66:    48de        .H      LDR      r0,[pc,#888] ; [0x12e0] = 0x20000014
        0x00000f68:    6800        .h      LDR      r0,[r0,#0]
        0x00000f6a:    f001fe59    ..Y.    BL       int_to_str ; 0x2c20
        0x00000f6e:    4606        .F      MOV      r6,r0
        0x00000f70:    4630        0F      MOV      r0,r6
        0x00000f72:    f001fdd3    ....    BL       UARTString ; 0x2b1c
        0x00000f76:    200a        .       MOVS     r0,#0xa
        0x00000f78:    f001fde2    ....    BL       WriteUART ; 0x2b40
        0x00000f7c:    e6e8        ..      B        0xd50 ; ChannelSelection_control + 32
        0x00000f7e:    e07a        z.      B        0x1076 ; ChannelSelection_control + 838
        0x00000f80:    a0e4        ..      ADR      r0,{pc}+0x394 ; 0x1314
        0x00000f82:    f001fdcb    ....    BL       UARTString ; 0x2b1c
        0x00000f86:    200a        .       MOVS     r0,#0xa
        0x00000f88:    f001fdda    ....    BL       WriteUART ; 0x2b40
        0x00000f8c:    e6e0        ..      B        0xd50 ; ChannelSelection_control + 32
        0x00000f8e:    4865        eH      LDR      r0,[pc,#404] ; [0x1124] = 0x20000008
        0x00000f90:    6800        .h      LDR      r0,[r0,#0]
        0x00000f92:    2804        .(      CMP      r0,#4
        0x00000f94:    d13a        :.      BNE      0x100c ; ChannelSelection_control + 732
        0x00000f96:    48d2        .H      LDR      r0,[pc,#840] ; [0x12e0] = 0x20000014
        0x00000f98:    6800        .h      LDR      r0,[r0,#0]
        0x00000f9a:    49e5        .I      LDR      r1,[pc,#916] ; [0x1330] = 0xba4
        0x00000f9c:    4288        .B      CMP      r0,r1
        0x00000f9e:    d82e        ..      BHI      0xffe ; ChannelSelection_control + 718
        0x00000fa0:    48cf        .H      LDR      r0,[pc,#828] ; [0x12e0] = 0x20000014
        0x00000fa2:    6800        .h      LDR      r0,[r0,#0]
        0x00000fa4:    300a        .0      ADDS     r0,r0,#0xa
        0x00000fa6:    49ce        .I      LDR      r1,[pc,#824] ; [0x12e0] = 0x20000014
        0x00000fa8:    6008        .`      STR      r0,[r1,#0]
        0x00000faa:    48cc        .H      LDR      r0,[pc,#816] ; [0x12dc] = 0x20000010
        0x00000fac:    8800        ..      LDRH     r0,[r0,#0]
        0x00000fae:    0400        ..      LSLS     r0,r0,#16
        0x00000fb0:    6809        .h      LDR      r1,[r1,#0]
        0x00000fb2:    0109        ..      LSLS     r1,r1,#4
        0x00000fb4:    1840        @.      ADDS     r0,r0,r1
        0x00000fb6:    1c80        ..      ADDS     r0,r0,#2
        0x00000fb8:    49ca        .I      LDR      r1,[pc,#808] ; [0x12e4] = 0x20000020
        0x00000fba:    6008        .`      STR      r0,[r1,#0]
        0x00000fbc:    4608        .F      MOV      r0,r1
        0x00000fbe:    6800        .h      LDR      r0,[r0,#0]
        0x00000fc0:    f001fd00    ....    BL       SPI_RFD ; 0x29c4
        0x00000fc4:    a0c8        ..      ADR      r0,{pc}+0x324 ; 0x12e8
        0x00000fc6:    f001fda9    ....    BL       UARTString ; 0x2b1c
        0x00000fca:    48c4        .H      LDR      r0,[pc,#784] ; [0x12dc] = 0x20000010
        0x00000fcc:    6800        .h      LDR      r0,[r0,#0]
        0x00000fce:    f001fe27    ..'.    BL       int_to_str ; 0x2c20
        0x00000fd2:    4606        .F      MOV      r6,r0
        0x00000fd4:    4630        0F      MOV      r0,r6
        0x00000fd6:    f001fda1    ....    BL       UARTString ; 0x2b1c
        0x00000fda:    200a        .       MOVS     r0,#0xa
        0x00000fdc:    f001fdb0    ....    BL       WriteUART ; 0x2b40
        0x00000fe0:    a0c6        ..      ADR      r0,{pc}+0x31c ; 0x12fc
        0x00000fe2:    f001fd9b    ....    BL       UARTString ; 0x2b1c
        0x00000fe6:    48be        .H      LDR      r0,[pc,#760] ; [0x12e0] = 0x20000014
        0x00000fe8:    6800        .h      LDR      r0,[r0,#0]
        0x00000fea:    f001fe19    ....    BL       int_to_str ; 0x2c20
        0x00000fee:    4606        .F      MOV      r6,r0
        0x00000ff0:    4630        0F      MOV      r0,r6
        0x00000ff2:    f001fd93    ....    BL       UARTString ; 0x2b1c
        0x00000ff6:    200a        .       MOVS     r0,#0xa
        0x00000ff8:    f001fda2    ....    BL       WriteUART ; 0x2b40
        0x00000ffc:    e6a8        ..      B        0xd50 ; ChannelSelection_control + 32
        0x00000ffe:    a0cd        ..      ADR      r0,{pc}+0x336 ; 0x1334
        0x00001000:    f001fd8c    ....    BL       UARTString ; 0x2b1c
        0x00001004:    200a        .       MOVS     r0,#0xa
        0x00001006:    f001fd9b    ....    BL       WriteUART ; 0x2b40
        0x0000100a:    e6a1        ..      B        0xd50 ; ChannelSelection_control + 32
        0x0000100c:    4845        EH      LDR      r0,[pc,#276] ; [0x1124] = 0x20000008
        0x0000100e:    6800        .h      LDR      r0,[r0,#0]
        0x00001010:    2805        .(      CMP      r0,#5
        0x00001012:    d129        ).      BNE      0x1068 ; ChannelSelection_control + 824
        0x00001014:    48ce        .H      LDR      r0,[pc,#824] ; [0x1350] = 0x20000018
        0x00001016:    6800        .h      LDR      r0,[r0,#0]
        0x00001018:    49ce        .I      LDR      r1,[pc,#824] ; [0x1354] = 0xf3c
        0x0000101a:    4288        .B      CMP      r0,r1
        0x0000101c:    d81d        ..      BHI      0x105a ; ChannelSelection_control + 810
        0x0000101e:    48cc        .H      LDR      r0,[pc,#816] ; [0x1350] = 0x20000018
        0x00001020:    6800        .h      LDR      r0,[r0,#0]
        0x00001022:    3064        d0      ADDS     r0,r0,#0x64
        0x00001024:    49ca        .I      LDR      r1,[pc,#808] ; [0x1350] = 0x20000018
        0x00001026:    6008        .`      STR      r0,[r1,#0]
        0x00001028:    4608        .F      MOV      r0,r1
        0x0000102a:    6800        .h      LDR      r0,[r0,#0]
        0x0000102c:    0100        ..      LSLS     r0,r0,#4
        0x0000102e:    1cc0        ..      ADDS     r0,r0,#3
        0x00001030:    49c9        .I      LDR      r1,[pc,#804] ; [0x1358] = 0x20000024
        0x00001032:    6008        .`      STR      r0,[r1,#0]
        0x00001034:    4608        .F      MOV      r0,r1
        0x00001036:    6800        .h      LDR      r0,[r0,#0]
        0x00001038:    f001fcc4    ....    BL       SPI_RFD ; 0x29c4
        0x0000103c:    a0c7        ..      ADR      r0,{pc}+0x320 ; 0x135c
        0x0000103e:    f001fd6d    ..m.    BL       UARTString ; 0x2b1c
        0x00001042:    48c3        .H      LDR      r0,[pc,#780] ; [0x1350] = 0x20000018
        0x00001044:    6800        .h      LDR      r0,[r0,#0]
        0x00001046:    f001fdeb    ....    BL       int_to_str ; 0x2c20
        0x0000104a:    4606        .F      MOV      r6,r0
        0x0000104c:    4630        0F      MOV      r0,r6
        0x0000104e:    f001fd65    ..e.    BL       UARTString ; 0x2b1c
        0x00001052:    200a        .       MOVS     r0,#0xa
        0x00001054:    f001fd74    ..t.    BL       WriteUART ; 0x2b40
        0x00001058:    e67a        z.      B        0xd50 ; ChannelSelection_control + 32
        0x0000105a:    a0b6        ..      ADR      r0,{pc}+0x2da ; 0x1334
        0x0000105c:    f001fd5e    ..^.    BL       UARTString ; 0x2b1c
        0x00001060:    200a        .       MOVS     r0,#0xa
        0x00001062:    f001fd6d    ..m.    BL       WriteUART ; 0x2b40
        0x00001066:    e673        s.      B        0xd50 ; ChannelSelection_control + 32
        0x00001068:    a0c1        ..      ADR      r0,{pc}+0x308 ; 0x1370
        0x0000106a:    f001fd57    ..W.    BL       UARTString ; 0x2b1c
        0x0000106e:    200a        .       MOVS     r0,#0xa
        0x00001070:    f001fd66    ..f.    BL       WriteUART ; 0x2b40
        0x00001074:    e66c        l.      B        0xd50 ; ChannelSelection_control + 32
        0x00001076:    2c2d        -,      CMP      r4,#0x2d
        0x00001078:    d150        P.      BNE      0x111c ; ChannelSelection_control + 1004
        0x0000107a:    482a        *H      LDR      r0,[pc,#168] ; [0x1124] = 0x20000008
        0x0000107c:    6800        .h      LDR      r0,[r0,#0]
        0x0000107e:    2802        .(      CMP      r0,#2
        0x00001080:    d129        ).      BNE      0x10d6 ; ChannelSelection_control + 934
        0x00001082:    4880        .H      LDR      r0,[pc,#512] ; [0x1284] = 0x2000000c
        0x00001084:    6800        .h      LDR      r0,[r0,#0]
        0x00001086:    283f        ?(      CMP      r0,#0x3f
        0x00001088:    d21e        ..      BCS      0x10c8 ; ChannelSelection_control + 920
        0x0000108a:    487e        ~H      LDR      r0,[pc,#504] ; [0x1284] = 0x2000000c
        0x0000108c:    6800        .h      LDR      r0,[r0,#0]
        0x0000108e:    1c40        @.      ADDS     r0,r0,#1
        0x00001090:    497c        |I      LDR      r1,[pc,#496] ; [0x1284] = 0x2000000c
        0x00001092:    6008        .`      STR      r0,[r1,#0]
        0x00001094:    4608        .F      MOV      r0,r1
        0x00001096:    6800        .h      LDR      r0,[r0,#0]
        0x00001098:    0100        ..      LSLS     r0,r0,#4
        0x0000109a:    497b        {I      LDR      r1,[pc,#492] ; [0x1288] = 0x16001
        0x0000109c:    1840        @.      ADDS     r0,r0,r1
        0x0000109e:    497b        {I      LDR      r1,[pc,#492] ; [0x128c] = 0x2000001c
        0x000010a0:    6008        .`      STR      r0,[r1,#0]
        0x000010a2:    4608        .F      MOV      r0,r1
        0x000010a4:    6800        .h      LDR      r0,[r0,#0]
        0x000010a6:    f001fc8d    ....    BL       SPI_RFD ; 0x29c4
        0x000010aa:    a07f        ..      ADR      r0,{pc}+0x1fe ; 0x12a8
        0x000010ac:    f001fd36    ..6.    BL       UARTString ; 0x2b1c
        0x000010b0:    4874        tH      LDR      r0,[pc,#464] ; [0x1284] = 0x2000000c
        0x000010b2:    6800        .h      LDR      r0,[r0,#0]
        0x000010b4:    f001fdb4    ....    BL       int_to_str ; 0x2c20
        0x000010b8:    4606        .F      MOV      r6,r0
        0x000010ba:    4630        0F      MOV      r0,r6
        0x000010bc:    f001fd2e    ....    BL       UARTString ; 0x2b1c
        0x000010c0:    200a        .       MOVS     r0,#0xa
        0x000010c2:    f001fd3d    ..=.    BL       WriteUART ; 0x2b40
        0x000010c6:    e643        C.      B        0xd50 ; ChannelSelection_control + 32
        0x000010c8:    a0b5        ..      ADR      r0,{pc}+0x2d8 ; 0x13a0
        0x000010ca:    f001fd27    ..'.    BL       UARTString ; 0x2b1c
        0x000010ce:    200a        .       MOVS     r0,#0xa
        0x000010d0:    f001fd36    ..6.    BL       WriteUART ; 0x2b40
        0x000010d4:    e63c        <.      B        0xd50 ; ChannelSelection_control + 32
        0x000010d6:    4813        .H      LDR      r0,[pc,#76] ; [0x1124] = 0x20000008
        0x000010d8:    6800        .h      LDR      r0,[r0,#0]
        0x000010da:    2803        .(      CMP      r0,#3
        0x000010dc:    d11f        ..      BNE      0x111e ; ChannelSelection_control + 1006
        0x000010de:    487f        .H      LDR      r0,[pc,#508] ; [0x12dc] = 0x20000010
        0x000010e0:    6800        .h      LDR      r0,[r0,#0]
        0x000010e2:    281d        .(      CMP      r0,#0x1d
        0x000010e4:    d91c        ..      BLS      0x1120 ; ChannelSelection_control + 1008
        0x000010e6:    487d        }H      LDR      r0,[pc,#500] ; [0x12dc] = 0x20000010
        0x000010e8:    6800        .h      LDR      r0,[r0,#0]
        0x000010ea:    1e40        @.      SUBS     r0,r0,#1
        0x000010ec:    497b        {I      LDR      r1,[pc,#492] ; [0x12dc] = 0x20000010
        0x000010ee:    6008        .`      STR      r0,[r1,#0]
        0x000010f0:    4608        .F      MOV      r0,r1
        0x000010f2:    8800        ..      LDRH     r0,[r0,#0]
        0x000010f4:    0400        ..      LSLS     r0,r0,#16
        0x000010f6:    497a        zI      LDR      r1,[pc,#488] ; [0x12e0] = 0x20000014
        0x000010f8:    6809        .h      LDR      r1,[r1,#0]
        0x000010fa:    0109        ..      LSLS     r1,r1,#4
        0x000010fc:    1840        @.      ADDS     r0,r0,r1
        0x000010fe:    1c80        ..      ADDS     r0,r0,#2
        0x00001100:    4978        xI      LDR      r1,[pc,#480] ; [0x12e4] = 0x20000020
        0x00001102:    6008        .`      STR      r0,[r1,#0]
        0x00001104:    4608        .F      MOV      r0,r1
        0x00001106:    6800        .h      LDR      r0,[r0,#0]
        0x00001108:    f001fc5c    ..\.    BL       SPI_RFD ; 0x29c4
        0x0000110c:    a0ab        ..      ADR      r0,{pc}+0x2b0 ; 0x13bc
        0x0000110e:    f001fd05    ....    BL       UARTString ; 0x2b1c
        0x00001112:    4874        tH      LDR      r0,[pc,#464] ; [0x12e4] = 0x20000020
        0x00001114:    6800        .h      LDR      r0,[r0,#0]
        0x00001116:    f001fd83    ....    BL       int_to_str ; 0x2c20
        0x0000111a:    e15b        [.      B        0x13d4 ; ChannelSelection_control + 1700
        0x0000111c:    e1fb        ..      B        0x1516 ; ChannelSelection_control + 2022
        0x0000111e:    e185        ..      B        0x142c ; ChannelSelection_control + 1788
        0x00001120:    e17d        }.      B        0x141e ; ChannelSelection_control + 1774
    $d
        0x00001122:    0000        ..      DCW    0
        0x00001124:    20000008    ...     DCD    536870920
        0x00001128:    74532020      St    DCD    1951604768
        0x0000112c:    20747261    art     DCD    544502369
        0x00001130:    69636552    Reci    DCD    1768121682
        0x00001134:    72657665    ever    DCD    1919252069
        0x00001138:    00002020      ..    DCD    8224
        0x0000113c:    74532020      St    DCD    1951604768
        0x00001140:    5220706f    op R    DCD    1377857647
        0x00001144:    65696365    ecie    DCD    1701405541
        0x00001148:    20726576    ver     DCD    544367990
        0x0000114c:    00000020     ...    DCD    32
        0x00001150:    53522020      RS    DCD    1397891104
        0x00001154:    53204953    SI S    DCD    1394624851
        0x00001158:    204e4143    CAN     DCD    541999427
        0x0000115c:    52415453    STAR    DCD    1380013139
        0x00001160:    20202154    T!      DCD    538976596
        0x00001164:    0000000a    ....    DCD    10
        0x00001168:    74532020      St    DCD    1951604768
        0x0000116c:    20747261    art     DCD    544502369
        0x00001170:    706d7564    dump    DCD    1886221668
        0x00001174:    20514920     IQ     DCD    542198048
        0x00001178:    61746164    data    DCD    1635017060
        0x0000117c:    20202021    !       DCD    538976289
        0x00001180:    00000000    ....    DCD    0
        0x00001184:    6c702020      pl    DCD    1819287584
        0x00001188:    65736165    ease    DCD    1702060389
        0x0000118c:    746e6520     ent    DCD    1953391904
        0x00001190:    27207265    er '    DCD    656437861
        0x00001194:    74202741    A' t    DCD    1948264257
        0x00001198:    7473206f    o st    DCD    1953701999
        0x0000119c:    20747261    art     DCD    544502369
        0x000011a0:    20656874    the     DCD    543516788
        0x000011a4:    66204d46    FM f    DCD    1713392966
        0x000011a8:    74737269    irst    DCD    1953722985
        0x000011ac:    20202021    !       DCD    538976289
        0x000011b0:    00000000    ....    DCD    0
        0x000011b4:    74532020      St    DCD    1951604768
        0x000011b8:    20747261    art     DCD    544502369
        0x000011bc:    706d7564    dump    DCD    1886221668
        0x000011c0:    64756120     aud    DCD    1685414176
        0x000011c4:    64206f69    io d    DCD    1679847273
        0x000011c8:    21617461    ata!    DCD    560034913
        0x000011cc:    00202020       .    DCD    2105376
        0x000011d0:    64612020      ad    DCD    1684086816
        0x000011d4:    7473756a    just    DCD    1953723754
        0x000011d8:    69616720     gai    DCD    1767991072
        0x000011dc:    6c70206e    n pl    DCD    1819287662
        0x000011e0:    65736165    ease    DCD    1702060389
        0x000011e4:    746e6520     ent    DCD    1953391904
        0x000011e8:    2b207265    er +    DCD    723546725
        0x000011ec:    20202d2f    /-      DCD    538979631
        0x000011f0:    00000000    ....    DCD    0
        0x000011f4:    64612020      ad    DCD    1684086816
        0x000011f8:    7473756a    just    DCD    1953723754
        0x000011fc:    204d4620     FM     DCD    541935136
        0x00001200:    20544e49    INT     DCD    542395977
        0x00001204:    61656c70    plea    DCD    1634036848
        0x00001208:    65206573    se e    DCD    1696621939
        0x0000120c:    7265746e    nter    DCD    1919251566
        0x00001210:    2d2f2b20     +/-    DCD    758065952
        0x00001214:    74732020      st    DCD    1953701920
        0x00001218:    69207065    ep i    DCD    1763733605
        0x0000121c:    20312073    s 1     DCD    540090483
        0x00001220:    00000000    ....    DCD    0
        0x00001224:    64612020      ad    DCD    1684086816
        0x00001228:    7473756a    just    DCD    1953723754
        0x0000122c:    204d4620     FM     DCD    541935136
        0x00001230:    43415246    FRAC    DCD    1128354374
        0x00001234:    656c7020     ple    DCD    1701605408
        0x00001238:    20657361    ase     DCD    543519585
        0x0000123c:    65746e65    ente    DCD    1702129253
        0x00001240:    2f2b2072    r +/    DCD    791355506
        0x00001244:    7320202d    -  s    DCD    1931485229
        0x00001248:    20706574    tep     DCD    544236916
        0x0000124c:    31207369    is 1    DCD    824210281
        0x00001250:    00002030    0 ..    DCD    8240
        0x00001254:    64612020      ad    DCD    1684086816
        0x00001258:    7473756a    just    DCD    1953723754
        0x0000125c:    204d4620     FM     DCD    541935136
        0x00001260:    20434641    AFC     DCD    541279809
        0x00001264:    61656c70    plea    DCD    1634036848
        0x00001268:    65206573    se e    DCD    1696621939
        0x0000126c:    7265746e    nter    DCD    1919251566
        0x00001270:    2d2f2b20     +/-    DCD    758065952
        0x00001274:    74732020      st    DCD    1953701920
        0x00001278:    69207065    ep i    DCD    1763733605
        0x0000127c:    30312073    s 10    DCD    808525939
        0x00001280:    00000020     ...    DCD    32
        0x00001284:    2000000c    ...     DCD    536870924
        0x00001288:    00016001    .`..    DCD    90113
        0x0000128c:    2000001c    ...     DCD    536870940
        0x00001290:    75632020      cu    DCD    1969430560
        0x00001294:    6e657272    rren    DCD    1852142194
        0x00001298:    45522074    t RE    DCD    1163010164
        0x0000129c:    69203147    G1 i    DCD    1763717447
        0x000012a0:    20203a73    s:      DCD    538983027
        0x000012a4:    00000000    ....    DCD    0
        0x000012a8:    75632020      cu    DCD    1969430560
        0x000012ac:    6e657272    rren    DCD    1852142194
        0x000012b0:    61672074    t ga    DCD    1634148468
        0x000012b4:    69206e69    in i    DCD    1763733097
        0x000012b8:    20203a73    s:      DCD    538983027
        0x000012bc:    00000000    ....    DCD    0
        0x000012c0:    65722020      re    DCD    1701978144
        0x000012c4:    20686361    ach     DCD    543712097
        0x000012c8:    6978616d    maxi    DCD    1769496941
        0x000012cc:    206d756d    mum     DCD    544044397
        0x000012d0:    67204242    BB g    DCD    1730167362
        0x000012d4:    206e6961    ain     DCD    544106849
        0x000012d8:    00000000    ....    DCD    0
        0x000012dc:    20000010    ...     DCD    536870928
        0x000012e0:    20000014    ...     DCD    536870932
        0x000012e4:    20000020     ..     DCD    536870944
        0x000012e8:    75632020      cu    DCD    1969430560
        0x000012ec:    6e657272    rren    DCD    1852142194
        0x000012f0:    4e492074    t IN    DCD    1313415284
        0x000012f4:    73692054    T is    DCD    1936269396
        0x000012f8:    0020203a    :  .    DCD    2105402
        0x000012fc:    75632020      cu    DCD    1969430560
        0x00001300:    6e657272    rren    DCD    1852142194
        0x00001304:    52462074    t FR    DCD    1380327540
        0x00001308:    69204341    AC i    DCD    1763722049
        0x0000130c:    20203a73    s:      DCD    538983027
        0x00001310:    00000000    ....    DCD    0
        0x00001314:    65722020      re    DCD    1701978144
        0x00001318:    20686361    ach     DCD    543712097
        0x0000131c:    6978616d    maxi    DCD    1769496941
        0x00001320:    206d756d    mum     DCD    544044397
        0x00001324:    20544e49    INT     DCD    542395977
        0x00001328:    756c6176    valu    DCD    1970037110
        0x0000132c:    00002065    e ..    DCD    8293
        0x00001330:    00000ba4    ....    DCD    2980
        0x00001334:    65722020      re    DCD    1701978144
        0x00001338:    20686361    ach     DCD    543712097
        0x0000133c:    6978616d    maxi    DCD    1769496941
        0x00001340:    206d756d    mum     DCD    544044397
        0x00001344:    43415246    FRAC    DCD    1128354374
        0x00001348:    6c617620     val    DCD    1818326560
        0x0000134c:    00206575    ue .    DCD    2123125
        0x00001350:    20000018    ...     DCD    536870936
        0x00001354:    00000f3c    <...    DCD    3900
        0x00001358:    20000024    $..     DCD    536870948
        0x0000135c:    75632020      cu    DCD    1969430560
        0x00001360:    6e657272    rren    DCD    1852142194
        0x00001364:    46412074    t AF    DCD    1178673268
        0x00001368:    73692043    C is    DCD    1936269379
        0x0000136c:    0020203a    :  .    DCD    2105402
        0x00001370:    6c702020      pl    DCD    1819287584
        0x00001374:    65736165    ease    DCD    1702060389
        0x00001378:    746e6520     ent    DCD    1953391904
        0x0000137c:    74207265    er t    DCD    1948283493
        0x00001380:    63206568    he c    DCD    1663067496
        0x00001384:    6572726f    orre    DCD    1701999215
        0x00001388:    646e6f70    pond    DCD    1684959088
        0x0000138c:    20676e69    ing     DCD    543649385
        0x00001390:    74617473    stat    DCD    1952543859
        0x00001394:    69662065    e fi    DCD    1768300645
        0x00001398:    21747372    rst!    DCD    561279858
        0x0000139c:    00202020       .    DCD    2105376
        0x000013a0:    65722020      re    DCD    1701978144
        0x000013a4:    20686361    ach     DCD    543712097
        0x000013a8:    696e696d    mini    DCD    1768843629
        0x000013ac:    206d756d    mum     DCD    544044397
        0x000013b0:    67204242    BB g    DCD    1730167362
        0x000013b4:    206e6961    ain     DCD    544106849
        0x000013b8:    00000000    ....    DCD    0
        0x000013bc:    75632020      cu    DCD    1969430560
        0x000013c0:    6e657272    rren    DCD    1852142194
        0x000013c4:    45522074    t RE    DCD    1163010164
        0x000013c8:    69203247    G2 i    DCD    1763717703
        0x000013cc:    20203a73    s:      DCD    538983027
        0x000013d0:    00000000    ....    DCD    0
    $t
        0x000013d4:    4606        .F      MOV      r6,r0
        0x000013d6:    4630        0F      MOV      r0,r6
        0x000013d8:    f001fba0    ....    BL       UARTString ; 0x2b1c
        0x000013dc:    200a        .       MOVS     r0,#0xa
        0x000013de:    f001fbaf    ....    BL       WriteUART ; 0x2b40
        0x000013e2:    48fe        .H      LDR      r0,[pc,#1016] ; [0x17dc] = 0x12e8
        0x000013e4:    f001fb9a    ....    BL       UARTString ; 0x2b1c
        0x000013e8:    48fd        .H      LDR      r0,[pc,#1012] ; [0x17e0] = 0x20000010
        0x000013ea:    6800        .h      LDR      r0,[r0,#0]
        0x000013ec:    f001fc18    ....    BL       int_to_str ; 0x2c20
        0x000013f0:    4606        .F      MOV      r6,r0
        0x000013f2:    4630        0F      MOV      r0,r6
        0x000013f4:    f001fb92    ....    BL       UARTString ; 0x2b1c
        0x000013f8:    200a        .       MOVS     r0,#0xa
        0x000013fa:    f001fba1    ....    BL       WriteUART ; 0x2b40
        0x000013fe:    48f7        .H      LDR      r0,[pc,#988] ; [0x17dc] = 0x12e8
        0x00001400:    3014        .0      ADDS     r0,r0,#0x14
        0x00001402:    f001fb8b    ....    BL       UARTString ; 0x2b1c
        0x00001406:    48f7        .H      LDR      r0,[pc,#988] ; [0x17e4] = 0x20000014
        0x00001408:    6800        .h      LDR      r0,[r0,#0]
        0x0000140a:    f001fc09    ....    BL       int_to_str ; 0x2c20
        0x0000140e:    4606        .F      MOV      r6,r0
        0x00001410:    4630        0F      MOV      r0,r6
        0x00001412:    f001fb83    ....    BL       UARTString ; 0x2b1c
        0x00001416:    200a        .       MOVS     r0,#0xa
        0x00001418:    f001fb92    ....    BL       WriteUART ; 0x2b40
        0x0000141c:    e498        ..      B        0xd50 ; ChannelSelection_control + 32
        0x0000141e:    a0f2        ..      ADR      r0,{pc}+0x3ca ; 0x17e8
        0x00001420:    f001fb7c    ..|.    BL       UARTString ; 0x2b1c
        0x00001424:    200a        .       MOVS     r0,#0xa
        0x00001426:    f001fb8b    ....    BL       WriteUART ; 0x2b40
        0x0000142a:    e491        ..      B        0xd50 ; ChannelSelection_control + 32
        0x0000142c:    48f5        .H      LDR      r0,[pc,#980] ; [0x1804] = 0x20000008
        0x0000142e:    6800        .h      LDR      r0,[r0,#0]
        0x00001430:    2804        .(      CMP      r0,#4
        0x00001432:    d13a        :.      BNE      0x14aa ; ChannelSelection_control + 1914
        0x00001434:    48ea        .H      LDR      r0,[pc,#936] ; [0x17e0] = 0x20000010
        0x00001436:    6800        .h      LDR      r0,[r0,#0]
        0x00001438:    280a        .(      CMP      r0,#0xa
        0x0000143a:    d32f        /.      BCC      0x149c ; ChannelSelection_control + 1900
        0x0000143c:    48e9        .H      LDR      r0,[pc,#932] ; [0x17e4] = 0x20000014
        0x0000143e:    6800        .h      LDR      r0,[r0,#0]
        0x00001440:    380a        .8      SUBS     r0,r0,#0xa
        0x00001442:    49e8        .I      LDR      r1,[pc,#928] ; [0x17e4] = 0x20000014
        0x00001444:    6008        .`      STR      r0,[r1,#0]
        0x00001446:    48e6        .H      LDR      r0,[pc,#920] ; [0x17e0] = 0x20000010
        0x00001448:    8800        ..      LDRH     r0,[r0,#0]
        0x0000144a:    0400        ..      LSLS     r0,r0,#16
        0x0000144c:    6809        .h      LDR      r1,[r1,#0]
        0x0000144e:    0109        ..      LSLS     r1,r1,#4
        0x00001450:    1840        @.      ADDS     r0,r0,r1
        0x00001452:    1c80        ..      ADDS     r0,r0,#2
        0x00001454:    49ec        .I      LDR      r1,[pc,#944] ; [0x1808] = 0x20000020
        0x00001456:    6008        .`      STR      r0,[r1,#0]
        0x00001458:    4608        .F      MOV      r0,r1
        0x0000145a:    6800        .h      LDR      r0,[r0,#0]
        0x0000145c:    f001fab2    ....    BL       SPI_RFD ; 0x29c4
        0x00001460:    48de        .H      LDR      r0,[pc,#888] ; [0x17dc] = 0x12e8
        0x00001462:    f001fb5b    ..[.    BL       UARTString ; 0x2b1c
        0x00001466:    48de        .H      LDR      r0,[pc,#888] ; [0x17e0] = 0x20000010
        0x00001468:    6800        .h      LDR      r0,[r0,#0]
        0x0000146a:    f001fbd9    ....    BL       int_to_str ; 0x2c20
        0x0000146e:    4606        .F      MOV      r6,r0
        0x00001470:    4630        0F      MOV      r0,r6
        0x00001472:    f001fb53    ..S.    BL       UARTString ; 0x2b1c
        0x00001476:    200a        .       MOVS     r0,#0xa
        0x00001478:    f001fb62    ..b.    BL       WriteUART ; 0x2b40
        0x0000147c:    48d7        .H      LDR      r0,[pc,#860] ; [0x17dc] = 0x12e8
        0x0000147e:    3014        .0      ADDS     r0,r0,#0x14
        0x00001480:    f001fb4c    ..L.    BL       UARTString ; 0x2b1c
        0x00001484:    48d7        .H      LDR      r0,[pc,#860] ; [0x17e4] = 0x20000014
        0x00001486:    6800        .h      LDR      r0,[r0,#0]
        0x00001488:    f001fbca    ....    BL       int_to_str ; 0x2c20
        0x0000148c:    4606        .F      MOV      r6,r0
        0x0000148e:    4630        0F      MOV      r0,r6
        0x00001490:    f001fb44    ..D.    BL       UARTString ; 0x2b1c
        0x00001494:    200a        .       MOVS     r0,#0xa
        0x00001496:    f001fb53    ..S.    BL       WriteUART ; 0x2b40
        0x0000149a:    e459        Y.      B        0xd50 ; ChannelSelection_control + 32
        0x0000149c:    a0db        ..      ADR      r0,{pc}+0x370 ; 0x180c
        0x0000149e:    f001fb3d    ..=.    BL       UARTString ; 0x2b1c
        0x000014a2:    200a        .       MOVS     r0,#0xa
        0x000014a4:    f001fb4c    ..L.    BL       WriteUART ; 0x2b40
        0x000014a8:    e452        R.      B        0xd50 ; ChannelSelection_control + 32
        0x000014aa:    48d6        .H      LDR      r0,[pc,#856] ; [0x1804] = 0x20000008
        0x000014ac:    6800        .h      LDR      r0,[r0,#0]
        0x000014ae:    2805        .(      CMP      r0,#5
        0x000014b0:    d129        ).      BNE      0x1506 ; ChannelSelection_control + 2006
        0x000014b2:    48dd        .H      LDR      r0,[pc,#884] ; [0x1828] = 0x20000018
        0x000014b4:    6800        .h      LDR      r0,[r0,#0]
        0x000014b6:    2864        d(      CMP      r0,#0x64
        0x000014b8:    d31e        ..      BCC      0x14f8 ; ChannelSelection_control + 1992
        0x000014ba:    48db        .H      LDR      r0,[pc,#876] ; [0x1828] = 0x20000018
        0x000014bc:    6800        .h      LDR      r0,[r0,#0]
        0x000014be:    3864        d8      SUBS     r0,r0,#0x64
        0x000014c0:    49d9        .I      LDR      r1,[pc,#868] ; [0x1828] = 0x20000018
        0x000014c2:    6008        .`      STR      r0,[r1,#0]
        0x000014c4:    4608        .F      MOV      r0,r1
        0x000014c6:    6800        .h      LDR      r0,[r0,#0]
        0x000014c8:    0100        ..      LSLS     r0,r0,#4
        0x000014ca:    1cc0        ..      ADDS     r0,r0,#3
        0x000014cc:    49d7        .I      LDR      r1,[pc,#860] ; [0x182c] = 0x20000024
        0x000014ce:    6008        .`      STR      r0,[r1,#0]
        0x000014d0:    4608        .F      MOV      r0,r1
        0x000014d2:    6800        .h      LDR      r0,[r0,#0]
        0x000014d4:    f001fa76    ..v.    BL       SPI_RFD ; 0x29c4
        0x000014d8:    48c0        .H      LDR      r0,[pc,#768] ; [0x17dc] = 0x12e8
        0x000014da:    3074        t0      ADDS     r0,r0,#0x74
        0x000014dc:    f001fb1e    ....    BL       UARTString ; 0x2b1c
        0x000014e0:    48d1        .H      LDR      r0,[pc,#836] ; [0x1828] = 0x20000018
        0x000014e2:    6800        .h      LDR      r0,[r0,#0]
        0x000014e4:    f001fb9c    ....    BL       int_to_str ; 0x2c20
        0x000014e8:    4606        .F      MOV      r6,r0
        0x000014ea:    4630        0F      MOV      r0,r6
        0x000014ec:    f001fb16    ....    BL       UARTString ; 0x2b1c
        0x000014f0:    200a        .       MOVS     r0,#0xa
        0x000014f2:    f001fb25    ..%.    BL       WriteUART ; 0x2b40
        0x000014f6:    e42b        +.      B        0xd50 ; ChannelSelection_control + 32
        0x000014f8:    a0cd        ..      ADR      r0,{pc}+0x338 ; 0x1830
        0x000014fa:    f001fb0f    ....    BL       UARTString ; 0x2b1c
        0x000014fe:    200a        .       MOVS     r0,#0xa
        0x00001500:    f001fb1e    ....    BL       WriteUART ; 0x2b40
        0x00001504:    e424        $.      B        0xd50 ; ChannelSelection_control + 32
        0x00001506:    48b5        .H      LDR      r0,[pc,#724] ; [0x17dc] = 0x12e8
        0x00001508:    3088        .0      ADDS     r0,r0,#0x88
        0x0000150a:    f001fb07    ....    BL       UARTString ; 0x2b1c
        0x0000150e:    200a        .       MOVS     r0,#0xa
        0x00001510:    f001fb16    ....    BL       WriteUART ; 0x2b40
        0x00001514:    e41c        ..      B        0xd50 ; ChannelSelection_control + 32
        0x00001516:    2c31        1,      CMP      r4,#0x31
        0x00001518:    d14a        J.      BNE      0x15b0 ; ChannelSelection_control + 2176
        0x0000151a:    4dcc        .M      LDR      r5,[pc,#816] ; [0x184c] = 0x43420
        0x0000151c:    4628        (F      MOV      r0,r5
        0x0000151e:    f001fa51    ..Q.    BL       SPI_RFD ; 0x29c4
        0x00001522:    4dcb        .M      LDR      r5,[pc,#812] ; [0x1850] = 0x28bb85
        0x00001524:    4628        (F      MOV      r0,r5
        0x00001526:    f001fa4d    ..M.    BL       SPI_RFD ; 0x29c4
        0x0000152a:    48ca        .H      LDR      r0,[pc,#808] ; [0x1854] = 0x210002
        0x0000152c:    49b6        .I      LDR      r1,[pc,#728] ; [0x1808] = 0x20000020
        0x0000152e:    6008        .`      STR      r0,[r1,#0]
        0x00001530:    6008        .`      STR      r0,[r1,#0]
        0x00001532:    6008        .`      STR      r0,[r1,#0]
        0x00001534:    6008        .`      STR      r0,[r1,#0]
        0x00001536:    6008        .`      STR      r0,[r1,#0]
        0x00001538:    6008        .`      STR      r0,[r1,#0]
        0x0000153a:    6008        .`      STR      r0,[r1,#0]
        0x0000153c:    6008        .`      STR      r0,[r1,#0]
        0x0000153e:    6008        .`      STR      r0,[r1,#0]
        0x00001540:    4608        .F      MOV      r0,r1
        0x00001542:    6800        .h      LDR      r0,[r0,#0]
        0x00001544:    f001fa3e    ..>.    BL       SPI_RFD ; 0x29c4
        0x00001548:    4dc3        .M      LDR      r5,[pc,#780] ; [0x1858] = 0xe141
        0x0000154a:    4628        (F      MOV      r0,r5
        0x0000154c:    e000        ..      B        0x1550 ; ChannelSelection_control + 2080
        0x0000154e:    e352        R.      B        0x1bf6 ; ChannelSelection_control + 3782
        0x00001550:    f001fa38    ..8.    BL       SPI_RFD ; 0x29c4
        0x00001554:    4dc1        .M      LDR      r5,[pc,#772] ; [0x185c] = 0x200016
        0x00001556:    4628        (F      MOV      r0,r5
        0x00001558:    f001fa34    ..4.    BL       SPI_RFD ; 0x29c4
        0x0000155c:    2504        .%      MOVS     r5,#4
        0x0000155e:    4628        (F      MOV      r0,r5
        0x00001560:    f001fa30    ..0.    BL       SPI_RFD ; 0x29c4
        0x00001564:    2003        .       MOVS     r0,#3
        0x00001566:    49b1        .I      LDR      r1,[pc,#708] ; [0x182c] = 0x20000024
        0x00001568:    6008        .`      STR      r0,[r1,#0]
        0x0000156a:    4608        .F      MOV      r0,r1
        0x0000156c:    6800        .h      LDR      r0,[r0,#0]
        0x0000156e:    f001fa29    ..).    BL       SPI_RFD ; 0x29c4
        0x00001572:    2014        .       MOVS     r0,#0x14
        0x00001574:    49ba        .I      LDR      r1,[pc,#744] ; [0x1860] = 0x2000000c
        0x00001576:    6008        .`      STR      r0,[r1,#0]
        0x00001578:    2021        !       MOVS     r0,#0x21
        0x0000157a:    4999        .I      LDR      r1,[pc,#612] ; [0x17e0] = 0x20000010
        0x0000157c:    6008        .`      STR      r0,[r1,#0]
        0x0000157e:    48b9        .H      LDR      r0,[pc,#740] ; [0x1864] = 0x6a4
        0x00001580:    4998        .I      LDR      r1,[pc,#608] ; [0x17e4] = 0x20000014
        0x00001582:    6008        .`      STR      r0,[r1,#0]
        0x00001584:    2001        .       MOVS     r0,#1
        0x00001586:    49b8        .I      LDR      r1,[pc,#736] ; [0x1868] = 0x20002254
        0x00001588:    6008        .`      STR      r0,[r1,#0]
        0x0000158a:    48b8        .H      LDR      r0,[pc,#736] ; [0x186c] = 0x42c60000
        0x0000158c:    6048        H`      STR      r0,[r1,#4]
        0x0000158e:    4894        .H      LDR      r0,[pc,#592] ; [0x17e0] = 0x20000010
        0x00001590:    6800        .h      LDR      r0,[r0,#0]
        0x00001592:    6088        .`      STR      r0,[r1,#8]
        0x00001594:    4893        .H      LDR      r0,[pc,#588] ; [0x17e4] = 0x20000014
        0x00001596:    6800        .h      LDR      r0,[r0,#0]
        0x00001598:    60c8        .`      STR      r0,[r1,#0xc]
        0x0000159a:    4608        .F      MOV      r0,r1
        0x0000159c:    c80f        ..      LDM      r0,{r0-r3}
        0x0000159e:    f000fea5    ....    BL       Channel_control ; 0x22ec
        0x000015a2:    a0b3        ..      ADR      r0,{pc}+0x2ce ; 0x1870
        0x000015a4:    f001faba    ....    BL       UARTString ; 0x2b1c
        0x000015a8:    200a        .       MOVS     r0,#0xa
        0x000015aa:    f001fac9    ....    BL       WriteUART ; 0x2b40
        0x000015ae:    e40c        ..      B        0xdca ; ChannelSelection_control + 154
        0x000015b0:    2c32        2,      CMP      r4,#0x32
        0x000015b2:    d169        i.      BNE      0x1688 ; ChannelSelection_control + 2392
        0x000015b4:    4da5        .M      LDR      r5,[pc,#660] ; [0x184c] = 0x43420
        0x000015b6:    4628        (F      MOV      r0,r5
        0x000015b8:    f001fa04    ....    BL       SPI_RFD ; 0x29c4
        0x000015bc:    4da4        .M      LDR      r5,[pc,#656] ; [0x1850] = 0x28bb85
        0x000015be:    4628        (F      MOV      r0,r5
        0x000015c0:    f001fa00    ....    BL       SPI_RFD ; 0x29c4
        0x000015c4:    48b0        .H      LDR      r0,[pc,#704] ; [0x1888] = 0x1e3842
        0x000015c6:    4990        .I      LDR      r1,[pc,#576] ; [0x1808] = 0x20000020
        0x000015c8:    6008        .`      STR      r0,[r1,#0]
        0x000015ca:    6008        .`      STR      r0,[r1,#0]
        0x000015cc:    6008        .`      STR      r0,[r1,#0]
        0x000015ce:    6008        .`      STR      r0,[r1,#0]
        0x000015d0:    6008        .`      STR      r0,[r1,#0]
        0x000015d2:    6008        .`      STR      r0,[r1,#0]
        0x000015d4:    6008        .`      STR      r0,[r1,#0]
        0x000015d6:    6008        .`      STR      r0,[r1,#0]
        0x000015d8:    6008        .`      STR      r0,[r1,#0]
        0x000015da:    4608        .F      MOV      r0,r1
        0x000015dc:    6800        .h      LDR      r0,[r0,#0]
        0x000015de:    f001f9f1    ....    BL       SPI_RFD ; 0x29c4
        0x000015e2:    4d9d        .M      LDR      r5,[pc,#628] ; [0x1858] = 0xe141
        0x000015e4:    4628        (F      MOV      r0,r5
        0x000015e6:    f001f9ed    ....    BL       SPI_RFD ; 0x29c4
        0x000015ea:    4d9c        .M      LDR      r5,[pc,#624] ; [0x185c] = 0x200016
        0x000015ec:    4628        (F      MOV      r0,r5
        0x000015ee:    f001f9e9    ....    BL       SPI_RFD ; 0x29c4
        0x000015f2:    2504        .%      MOVS     r5,#4
        0x000015f4:    4628        (F      MOV      r0,r5
        0x000015f6:    f001f9e5    ....    BL       SPI_RFD ; 0x29c4
        0x000015fa:    2003        .       MOVS     r0,#3
        0x000015fc:    498b        .I      LDR      r1,[pc,#556] ; [0x182c] = 0x20000024
        0x000015fe:    6008        .`      STR      r0,[r1,#0]
        0x00001600:    4608        .F      MOV      r0,r1
        0x00001602:    6800        .h      LDR      r0,[r0,#0]
        0x00001604:    f001f9de    ....    BL       SPI_RFD ; 0x29c4
        0x00001608:    2014        .       MOVS     r0,#0x14
        0x0000160a:    4995        .I      LDR      r1,[pc,#596] ; [0x1860] = 0x2000000c
        0x0000160c:    6008        .`      STR      r0,[r1,#0]
        0x0000160e:    201e        .       MOVS     r0,#0x1e
        0x00001610:    4973        sI      LDR      r1,[pc,#460] ; [0x17e0] = 0x20000010
        0x00001612:    6008        .`      STR      r0,[r1,#0]
        0x00001614:    20e1        .       MOVS     r0,#0xe1
        0x00001616:    0080        ..      LSLS     r0,r0,#2
        0x00001618:    4972        rI      LDR      r1,[pc,#456] ; [0x17e4] = 0x20000014
        0x0000161a:    6008        .`      STR      r0,[r1,#0]
        0x0000161c:    2002        .       MOVS     r0,#2
        0x0000161e:    4992        .I      LDR      r1,[pc,#584] ; [0x1868] = 0x20002254
        0x00001620:    6008        .`      STR      r0,[r1,#0]
        0x00001622:    489a        .H      LDR      r0,[pc,#616] ; [0x188c] = 0x42b5cccd
        0x00001624:    6048        H`      STR      r0,[r1,#4]
        0x00001626:    486e        nH      LDR      r0,[pc,#440] ; [0x17e0] = 0x20000010
        0x00001628:    6800        .h      LDR      r0,[r0,#0]
        0x0000162a:    6088        .`      STR      r0,[r1,#8]
        0x0000162c:    486d        mH      LDR      r0,[pc,#436] ; [0x17e4] = 0x20000014
        0x0000162e:    6800        .h      LDR      r0,[r0,#0]
        0x00001630:    60c8        .`      STR      r0,[r1,#0xc]
        0x00001632:    4608        .F      MOV      r0,r1
        0x00001634:    c80f        ..      LDM      r0,{r0-r3}
        0x00001636:    f000fe59    ..Y.    BL       Channel_control ; 0x22ec
        0x0000163a:    488b        .H      LDR      r0,[pc,#556] ; [0x1868] = 0x20002254
        0x0000163c:    c80f        ..      LDM      r0,{r0-r3}
        0x0000163e:    f000fe55    ..U.    BL       Channel_control ; 0x22ec
        0x00001642:    4889        .H      LDR      r0,[pc,#548] ; [0x1868] = 0x20002254
        0x00001644:    c80f        ..      LDM      r0,{r0-r3}
        0x00001646:    f000fe51    ..Q.    BL       Channel_control ; 0x22ec
        0x0000164a:    4887        .H      LDR      r0,[pc,#540] ; [0x1868] = 0x20002254
        0x0000164c:    c80f        ..      LDM      r0,{r0-r3}
        0x0000164e:    f000fe4d    ..M.    BL       Channel_control ; 0x22ec
        0x00001652:    4885        .H      LDR      r0,[pc,#532] ; [0x1868] = 0x20002254
        0x00001654:    c80f        ..      LDM      r0,{r0-r3}
        0x00001656:    f000fe49    ..I.    BL       Channel_control ; 0x22ec
        0x0000165a:    4883        .H      LDR      r0,[pc,#524] ; [0x1868] = 0x20002254
        0x0000165c:    c80f        ..      LDM      r0,{r0-r3}
        0x0000165e:    f000fe45    ..E.    BL       Channel_control ; 0x22ec
        0x00001662:    4881        .H      LDR      r0,[pc,#516] ; [0x1868] = 0x20002254
        0x00001664:    c80f        ..      LDM      r0,{r0-r3}
        0x00001666:    f000fe41    ..A.    BL       Channel_control ; 0x22ec
        0x0000166a:    487f        .H      LDR      r0,[pc,#508] ; [0x1868] = 0x20002254
        0x0000166c:    c80f        ..      LDM      r0,{r0-r3}
        0x0000166e:    f000fe3d    ..=.    BL       Channel_control ; 0x22ec
        0x00001672:    487d        }H      LDR      r0,[pc,#500] ; [0x1868] = 0x20002254
        0x00001674:    c80f        ..      LDM      r0,{r0-r3}
        0x00001676:    f000fe39    ..9.    BL       Channel_control ; 0x22ec
        0x0000167a:    a085        ..      ADR      r0,{pc}+0x216 ; 0x1890
        0x0000167c:    f001fa4e    ..N.    BL       UARTString ; 0x2b1c
        0x00001680:    200a        .       MOVS     r0,#0xa
        0x00001682:    f001fa5d    ..].    BL       WriteUART ; 0x2b40
        0x00001686:    e43a        :.      B        0xefe ; ChannelSelection_control + 462
        0x00001688:    2c33        3,      CMP      r4,#0x33
        0x0000168a:    d13b        ;.      BNE      0x1704 ; ChannelSelection_control + 2516
        0x0000168c:    4d6f        oM      LDR      r5,[pc,#444] ; [0x184c] = 0x43420
        0x0000168e:    4628        (F      MOV      r0,r5
        0x00001690:    f001f998    ....    BL       SPI_RFD ; 0x29c4
        0x00001694:    4d6e        nM      LDR      r5,[pc,#440] ; [0x1850] = 0x28bb85
        0x00001696:    4628        (F      MOV      r0,r5
        0x00001698:    f001f994    ....    BL       SPI_RFD ; 0x29c4
        0x0000169c:    4d82        .M      LDR      r5,[pc,#520] ; [0x18a8] = 0x1f3e822
        0x0000169e:    4628        (F      MOV      r0,r5
        0x000016a0:    f001f990    ....    BL       SPI_RFD ; 0x29c4
        0x000016a4:    4d6c        lM      LDR      r5,[pc,#432] ; [0x1858] = 0xe141
        0x000016a6:    4628        (F      MOV      r0,r5
        0x000016a8:    f001f98c    ....    BL       SPI_RFD ; 0x29c4
        0x000016ac:    4d6b        kM      LDR      r5,[pc,#428] ; [0x185c] = 0x200016
        0x000016ae:    4628        (F      MOV      r0,r5
        0x000016b0:    f001f988    ....    BL       SPI_RFD ; 0x29c4
        0x000016b4:    2504        .%      MOVS     r5,#4
        0x000016b6:    4628        (F      MOV      r0,r5
        0x000016b8:    f001f984    ....    BL       SPI_RFD ; 0x29c4
        0x000016bc:    2503        .%      MOVS     r5,#3
        0x000016be:    4628        (F      MOV      r0,r5
        0x000016c0:    f001f980    ....    BL       SPI_RFD ; 0x29c4
        0x000016c4:    2014        .       MOVS     r0,#0x14
        0x000016c6:    4966        fI      LDR      r1,[pc,#408] ; [0x1860] = 0x2000000c
        0x000016c8:    6008        .`      STR      r0,[r1,#0]
        0x000016ca:    201f        .       MOVS     r0,#0x1f
        0x000016cc:    4944        DI      LDR      r1,[pc,#272] ; [0x17e0] = 0x20000010
        0x000016ce:    6008        .`      STR      r0,[r1,#0]
        0x000016d0:    207d        }       MOVS     r0,#0x7d
        0x000016d2:    00c0        ..      LSLS     r0,r0,#3
        0x000016d4:    4943        CI      LDR      r1,[pc,#268] ; [0x17e4] = 0x20000014
        0x000016d6:    6008        .`      STR      r0,[r1,#0]
        0x000016d8:    2003        .       MOVS     r0,#3
        0x000016da:    4963        cI      LDR      r1,[pc,#396] ; [0x1868] = 0x20002254
        0x000016dc:    6008        .`      STR      r0,[r1,#0]
        0x000016de:    4873        sH      LDR      r0,[pc,#460] ; [0x18ac] = 0x42bc0000
        0x000016e0:    6048        H`      STR      r0,[r1,#4]
        0x000016e2:    483f        ?H      LDR      r0,[pc,#252] ; [0x17e0] = 0x20000010
        0x000016e4:    6800        .h      LDR      r0,[r0,#0]
        0x000016e6:    6088        .`      STR      r0,[r1,#8]
        0x000016e8:    483e        >H      LDR      r0,[pc,#248] ; [0x17e4] = 0x20000014
        0x000016ea:    6800        .h      LDR      r0,[r0,#0]
        0x000016ec:    60c8        .`      STR      r0,[r1,#0xc]
        0x000016ee:    4608        .F      MOV      r0,r1
        0x000016f0:    c80f        ..      LDM      r0,{r0-r3}
        0x000016f2:    f000fdfb    ....    BL       Channel_control ; 0x22ec
        0x000016f6:    a06e        n.      ADR      r0,{pc}+0x1ba ; 0x18b0
        0x000016f8:    f001fa10    ....    BL       UARTString ; 0x2b1c
        0x000016fc:    200a        .       MOVS     r0,#0xa
        0x000016fe:    f001fa1f    ....    BL       WriteUART ; 0x2b40
        0x00001702:    e43b        ;.      B        0xf7c ; ChannelSelection_control + 588
        0x00001704:    2c34        4,      CMP      r4,#0x34
        0x00001706:    d13a        :.      BNE      0x177e ; ChannelSelection_control + 2638
        0x00001708:    4d50        PM      LDR      r5,[pc,#320] ; [0x184c] = 0x43420
        0x0000170a:    4628        (F      MOV      r0,r5
        0x0000170c:    f001f95a    ..Z.    BL       SPI_RFD ; 0x29c4
        0x00001710:    4d4f        OM      LDR      r5,[pc,#316] ; [0x1850] = 0x28bb85
        0x00001712:    4628        (F      MOV      r0,r5
        0x00001714:    f001f956    ..V.    BL       SPI_RFD ; 0x29c4
        0x00001718:    4d6b        kM      LDR      r5,[pc,#428] ; [0x18c8] = 0x1f6a42
        0x0000171a:    4628        (F      MOV      r0,r5
        0x0000171c:    f001f952    ..R.    BL       SPI_RFD ; 0x29c4
        0x00001720:    4d4d        MM      LDR      r5,[pc,#308] ; [0x1858] = 0xe141
        0x00001722:    4628        (F      MOV      r0,r5
        0x00001724:    f001f94e    ..N.    BL       SPI_RFD ; 0x29c4
        0x00001728:    4d4c        LM      LDR      r5,[pc,#304] ; [0x185c] = 0x200016
        0x0000172a:    4628        (F      MOV      r0,r5
        0x0000172c:    f001f94a    ..J.    BL       SPI_RFD ; 0x29c4
        0x00001730:    2504        .%      MOVS     r5,#4
        0x00001732:    4628        (F      MOV      r0,r5
        0x00001734:    f001f946    ..F.    BL       SPI_RFD ; 0x29c4
        0x00001738:    2503        .%      MOVS     r5,#3
        0x0000173a:    4628        (F      MOV      r0,r5
        0x0000173c:    f001f942    ..B.    BL       SPI_RFD ; 0x29c4
        0x00001740:    2014        .       MOVS     r0,#0x14
        0x00001742:    4947        GI      LDR      r1,[pc,#284] ; [0x1860] = 0x2000000c
        0x00001744:    6008        .`      STR      r0,[r1,#0]
        0x00001746:    201f        .       MOVS     r0,#0x1f
        0x00001748:    4925        %I      LDR      r1,[pc,#148] ; [0x17e0] = 0x20000010
        0x0000174a:    6008        .`      STR      r0,[r1,#0]
        0x0000174c:    4845        EH      LDR      r0,[pc,#276] ; [0x1864] = 0x6a4
        0x0000174e:    4925        %I      LDR      r1,[pc,#148] ; [0x17e4] = 0x20000014
        0x00001750:    6008        .`      STR      r0,[r1,#0]
        0x00001752:    2004        .       MOVS     r0,#4
        0x00001754:    4944        DI      LDR      r1,[pc,#272] ; [0x1868] = 0x20002254
        0x00001756:    6008        .`      STR      r0,[r1,#0]
        0x00001758:    485c        \H      LDR      r0,[pc,#368] ; [0x18cc] = 0x42bd6666
        0x0000175a:    6048        H`      STR      r0,[r1,#4]
        0x0000175c:    4820         H      LDR      r0,[pc,#128] ; [0x17e0] = 0x20000010
        0x0000175e:    6800        .h      LDR      r0,[r0,#0]
        0x00001760:    6088        .`      STR      r0,[r1,#8]
        0x00001762:    4820         H      LDR      r0,[pc,#128] ; [0x17e4] = 0x20000014
        0x00001764:    6800        .h      LDR      r0,[r0,#0]
        0x00001766:    60c8        .`      STR      r0,[r1,#0xc]
        0x00001768:    4608        .F      MOV      r0,r1
        0x0000176a:    c80f        ..      LDM      r0,{r0-r3}
        0x0000176c:    f000fdbe    ....    BL       Channel_control ; 0x22ec
        0x00001770:    a057        W.      ADR      r0,{pc}+0x160 ; 0x18d0
        0x00001772:    f001f9d3    ....    BL       UARTString ; 0x2b1c
        0x00001776:    200a        .       MOVS     r0,#0xa
        0x00001778:    f001f9e2    ....    BL       WriteUART ; 0x2b40
        0x0000177c:    e406        ..      B        0xf8c ; ChannelSelection_control + 604
        0x0000177e:    2c35        5,      CMP      r4,#0x35
        0x00001780:    d12a        *.      BNE      0x17d8 ; ChannelSelection_control + 2728
        0x00001782:    4d32        2M      LDR      r5,[pc,#200] ; [0x184c] = 0x43420
        0x00001784:    4628        (F      MOV      r0,r5
        0x00001786:    f001f91d    ....    BL       SPI_RFD ; 0x29c4
        0x0000178a:    4d31        1M      LDR      r5,[pc,#196] ; [0x1850] = 0x28bb85
        0x0000178c:    4628        (F      MOV      r0,r5
        0x0000178e:    f001f919    ....    BL       SPI_RFD ; 0x29c4
        0x00001792:    4d55        UM      LDR      r5,[pc,#340] ; [0x18e8] = 0x1f1902
        0x00001794:    4628        (F      MOV      r0,r5
        0x00001796:    f001f915    ....    BL       SPI_RFD ; 0x29c4
        0x0000179a:    4d2f        /M      LDR      r5,[pc,#188] ; [0x1858] = 0xe141
        0x0000179c:    4628        (F      MOV      r0,r5
        0x0000179e:    f001f911    ....    BL       SPI_RFD ; 0x29c4
        0x000017a2:    4d2e        .M      LDR      r5,[pc,#184] ; [0x185c] = 0x200016
        0x000017a4:    4628        (F      MOV      r0,r5
        0x000017a6:    f001f90d    ....    BL       SPI_RFD ; 0x29c4
        0x000017aa:    2504        .%      MOVS     r5,#4
        0x000017ac:    4628        (F      MOV      r0,r5
        0x000017ae:    f001f909    ....    BL       SPI_RFD ; 0x29c4
        0x000017b2:    2503        .%      MOVS     r5,#3
        0x000017b4:    4628        (F      MOV      r0,r5
        0x000017b6:    f001f905    ....    BL       SPI_RFD ; 0x29c4
        0x000017ba:    2014        .       MOVS     r0,#0x14
        0x000017bc:    4928        (I      LDR      r1,[pc,#160] ; [0x1860] = 0x2000000c
        0x000017be:    6008        .`      STR      r0,[r1,#0]
        0x000017c0:    201f        .       MOVS     r0,#0x1f
        0x000017c2:    4907        .I      LDR      r1,[pc,#28] ; [0x17e0] = 0x20000010
        0x000017c4:    6008        .`      STR      r0,[r1,#0]
        0x000017c6:    20ff        .       MOVS     r0,#0xff
        0x000017c8:    3091        .0      ADDS     r0,r0,#0x91
        0x000017ca:    4906        .I      LDR      r1,[pc,#24] ; [0x17e4] = 0x20000014
        0x000017cc:    6008        .`      STR      r0,[r1,#0]
        0x000017ce:    2005        .       MOVS     r0,#5
        0x000017d0:    4925        %I      LDR      r1,[pc,#148] ; [0x1868] = 0x20002254
        0x000017d2:    6008        .`      STR      r0,[r1,#0]
        0x000017d4:    4845        EH      LDR      r0,[pc,#276] ; [0x18ec] = 0x42bacccd
        0x000017d6:    e08b        ..      B        0x18f0 ; ChannelSelection_control + 3008
        0x000017d8:    e09c        ..      B        0x1914 ; ChannelSelection_control + 3044
    $d
        0x000017da:    0000        ..      DCW    0
        0x000017dc:    000012e8    ....    DCD    4840
        0x000017e0:    20000010    ...     DCD    536870928
        0x000017e4:    20000014    ...     DCD    536870932
        0x000017e8:    65722020      re    DCD    1701978144
        0x000017ec:    20686361    ach     DCD    543712097
        0x000017f0:    696e696d    mini    DCD    1768843629
        0x000017f4:    206d756d    mum     DCD    544044397
        0x000017f8:    20544e49    INT     DCD    542395977
        0x000017fc:    756c6176    valu    DCD    1970037110
        0x00001800:    00002065    e ..    DCD    8293
        0x00001804:    20000008    ...     DCD    536870920
        0x00001808:    20000020     ..     DCD    536870944
        0x0000180c:    65722020      re    DCD    1701978144
        0x00001810:    20686361    ach     DCD    543712097
        0x00001814:    696e696d    mini    DCD    1768843629
        0x00001818:    206d756d    mum     DCD    544044397
        0x0000181c:    43415246    FRAC    DCD    1128354374
        0x00001820:    6c617620     val    DCD    1818326560
        0x00001824:    00206575    ue .    DCD    2123125
        0x00001828:    20000018    ...     DCD    536870936
        0x0000182c:    20000024    $..     DCD    536870948
        0x00001830:    65722020      re    DCD    1701978144
        0x00001834:    20686361    ach     DCD    543712097
        0x00001838:    696e696d    mini    DCD    1768843629
        0x0000183c:    206d756d    mum     DCD    544044397
        0x00001840:    20434641    AFC     DCD    541279809
        0x00001844:    756c6176    valu    DCD    1970037110
        0x00001848:    00002065    e ..    DCD    8293
        0x0000184c:    00043420     4..    DCD    275488
        0x00001850:    0028bb85    ..(.    DCD    2669445
        0x00001854:    00210002    ..!.    DCD    2162690
        0x00001858:    0000e141    A...    DCD    57665
        0x0000185c:    00200016    .. .    DCD    2097174
        0x00001860:    2000000c    ...     DCD    536870924
        0x00001864:    000006a4    ....    DCD    1700
        0x00001868:    20002254    T".     DCD    536879700
        0x0000186c:    42c60000    ...B    DCD    1120272384
        0x00001870:    68432020      Ch    DCD    1749229600
        0x00001874:    656e6e61    anne    DCD    1701736033
        0x00001878:    39203a6c    l: 9    DCD    958413420
        0x0000187c:    4d302e39    9.0M    DCD    1295003193
        0x00001880:    20207a48    Hz      DCD    538999368
        0x00001884:    00000000    ....    DCD    0
        0x00001888:    001e3842    B8..    DCD    1980482
        0x0000188c:    42b5cccd    ...B    DCD    1119210701
        0x00001890:    68432020      Ch    DCD    1749229600
        0x00001894:    656e6e61    anne    DCD    1701736033
        0x00001898:    39203a6c    l: 9    DCD    958413420
        0x0000189c:    4d392e30    0.9M    DCD    1295593008
        0x000018a0:    20207a48    Hz      DCD    538999368
        0x000018a4:    00000000    ....    DCD    0
        0x000018a8:    01f3e822    "...    DCD    32761890
        0x000018ac:    42bc0000    ...B    DCD    1119617024
        0x000018b0:    68432020      Ch    DCD    1749229600
        0x000018b4:    656e6e61    anne    DCD    1701736033
        0x000018b8:    39203a6c    l: 9    DCD    958413420
        0x000018bc:    4d302e34    4.0M    DCD    1295003188
        0x000018c0:    20207a48    Hz      DCD    538999368
        0x000018c4:    00000000    ....    DCD    0
        0x000018c8:    001f6a42    Bj..    DCD    2058818
        0x000018cc:    42bd6666    ff.B    DCD    1119708774
        0x000018d0:    68432020      Ch    DCD    1749229600
        0x000018d4:    656e6e61    anne    DCD    1701736033
        0x000018d8:    39203a6c    l: 9    DCD    958413420
        0x000018dc:    4d372e34    4.7M    DCD    1295461940
        0x000018e0:    20207a48    Hz      DCD    538999368
        0x000018e4:    00000000    ....    DCD    0
        0x000018e8:    001f1902    ....    DCD    2038018
        0x000018ec:    42bacccd    ...B    DCD    1119538381
    $t
        0x000018f0:    6048        H`      STR      r0,[r1,#4]
        0x000018f2:    48fc        .H      LDR      r0,[pc,#1008] ; [0x1ce4] = 0x20000010
        0x000018f4:    6800        .h      LDR      r0,[r0,#0]
        0x000018f6:    6088        .`      STR      r0,[r1,#8]
        0x000018f8:    48fb        .H      LDR      r0,[pc,#1004] ; [0x1ce8] = 0x20000014
        0x000018fa:    6800        .h      LDR      r0,[r0,#0]
        0x000018fc:    60c8        .`      STR      r0,[r1,#0xc]
        0x000018fe:    4608        .F      MOV      r0,r1
        0x00001900:    c80f        ..      LDM      r0,{r0-r3}
        0x00001902:    f000fcf3    ....    BL       Channel_control ; 0x22ec
        0x00001906:    a0f9        ..      ADR      r0,{pc}+0x3e6 ; 0x1cec
        0x00001908:    f001f908    ....    BL       UARTString ; 0x2b1c
        0x0000190c:    200a        .       MOVS     r0,#0xa
        0x0000190e:    f001f917    ....    BL       WriteUART ; 0x2b40
        0x00001912:    e583        ..      B        0x141c ; ChannelSelection_control + 1772
        0x00001914:    2c36        6,      CMP      r4,#0x36
        0x00001916:    d13b        ;.      BNE      0x1990 ; ChannelSelection_control + 3168
        0x00001918:    4dfd        .M      LDR      r5,[pc,#1012] ; [0x1d10] = 0x43420
        0x0000191a:    4628        (F      MOV      r0,r5
        0x0000191c:    f001f852    ..R.    BL       SPI_RFD ; 0x29c4
        0x00001920:    4dfc        .M      LDR      r5,[pc,#1008] ; [0x1d14] = 0x28bb85
        0x00001922:    4628        (F      MOV      r0,r5
        0x00001924:    f001f84e    ..N.    BL       SPI_RFD ; 0x29c4
        0x00001928:    4dfb        .M      LDR      r5,[pc,#1004] ; [0x1d18] = 0x1f9c42
        0x0000192a:    4628        (F      MOV      r0,r5
        0x0000192c:    f001f84a    ..J.    BL       SPI_RFD ; 0x29c4
        0x00001930:    4dfa        .M      LDR      r5,[pc,#1000] ; [0x1d1c] = 0xe141
        0x00001932:    4628        (F      MOV      r0,r5
        0x00001934:    f001f846    ..F.    BL       SPI_RFD ; 0x29c4
        0x00001938:    4df9        .M      LDR      r5,[pc,#996] ; [0x1d20] = 0x200016
        0x0000193a:    4628        (F      MOV      r0,r5
        0x0000193c:    f001f842    ..B.    BL       SPI_RFD ; 0x29c4
        0x00001940:    2504        .%      MOVS     r5,#4
        0x00001942:    4628        (F      MOV      r0,r5
        0x00001944:    f001f83e    ..>.    BL       SPI_RFD ; 0x29c4
        0x00001948:    2503        .%      MOVS     r5,#3
        0x0000194a:    4628        (F      MOV      r0,r5
        0x0000194c:    f001f83a    ..:.    BL       SPI_RFD ; 0x29c4
        0x00001950:    2014        .       MOVS     r0,#0x14
        0x00001952:    49f4        .I      LDR      r1,[pc,#976] ; [0x1d24] = 0x2000000c
        0x00001954:    6008        .`      STR      r0,[r1,#0]
        0x00001956:    201e        .       MOVS     r0,#0x1e
        0x00001958:    49e2        .I      LDR      r1,[pc,#904] ; [0x1ce4] = 0x20000010
        0x0000195a:    6008        .`      STR      r0,[r1,#0]
        0x0000195c:    204b        K       MOVS     r0,#0x4b
        0x0000195e:    0140        @.      LSLS     r0,r0,#5
        0x00001960:    49e1        .I      LDR      r1,[pc,#900] ; [0x1ce8] = 0x20000014
        0x00001962:    6008        .`      STR      r0,[r1,#0]
        0x00001964:    2006        .       MOVS     r0,#6
        0x00001966:    49f0        .I      LDR      r1,[pc,#960] ; [0x1d28] = 0x20002254
        0x00001968:    6008        .`      STR      r0,[r1,#0]
        0x0000196a:    48f0        .H      LDR      r0,[pc,#960] ; [0x1d2c] = 0x42bf0000
        0x0000196c:    6048        H`      STR      r0,[r1,#4]
        0x0000196e:    48dd        .H      LDR      r0,[pc,#884] ; [0x1ce4] = 0x20000010
        0x00001970:    6800        .h      LDR      r0,[r0,#0]
        0x00001972:    6088        .`      STR      r0,[r1,#8]
        0x00001974:    48dc        .H      LDR      r0,[pc,#880] ; [0x1ce8] = 0x20000014
        0x00001976:    6800        .h      LDR      r0,[r0,#0]
        0x00001978:    60c8        .`      STR      r0,[r1,#0xc]
        0x0000197a:    4608        .F      MOV      r0,r1
        0x0000197c:    c80f        ..      LDM      r0,{r0-r3}
        0x0000197e:    f000fcb5    ....    BL       Channel_control ; 0x22ec
        0x00001982:    a0eb        ..      ADR      r0,{pc}+0x3ae ; 0x1d30
        0x00001984:    f001f8ca    ....    BL       UARTString ; 0x2b1c
        0x00001988:    200a        .       MOVS     r0,#0xa
        0x0000198a:    f001f8d9    ....    BL       WriteUART ; 0x2b40
        0x0000198e:    e545        E.      B        0x141c ; ChannelSelection_control + 1772
        0x00001990:    2c37        7,      CMP      r4,#0x37
        0x00001992:    d13b        ;.      BNE      0x1a0c ; ChannelSelection_control + 3292
        0x00001994:    4dde        .M      LDR      r5,[pc,#888] ; [0x1d10] = 0x43420
        0x00001996:    4628        (F      MOV      r0,r5
        0x00001998:    f001f814    ....    BL       SPI_RFD ; 0x29c4
        0x0000199c:    4ddd        .M      LDR      r5,[pc,#884] ; [0x1d14] = 0x28bb85
        0x0000199e:    4628        (F      MOV      r0,r5
        0x000019a0:    f001f810    ....    BL       SPI_RFD ; 0x29c4
        0x000019a4:    4de8        .M      LDR      r5,[pc,#928] ; [0x1d48] = 0x1e5782
        0x000019a6:    4628        (F      MOV      r0,r5
        0x000019a8:    f001f80c    ....    BL       SPI_RFD ; 0x29c4
        0x000019ac:    4ddb        .M      LDR      r5,[pc,#876] ; [0x1d1c] = 0xe141
        0x000019ae:    4628        (F      MOV      r0,r5
        0x000019b0:    f001f808    ....    BL       SPI_RFD ; 0x29c4
        0x000019b4:    4dda        .M      LDR      r5,[pc,#872] ; [0x1d20] = 0x200016
        0x000019b6:    4628        (F      MOV      r0,r5
        0x000019b8:    f001f804    ....    BL       SPI_RFD ; 0x29c4
        0x000019bc:    2504        .%      MOVS     r5,#4
        0x000019be:    4628        (F      MOV      r0,r5
        0x000019c0:    f001f800    ....    BL       SPI_RFD ; 0x29c4
        0x000019c4:    2503        .%      MOVS     r5,#3
        0x000019c6:    4628        (F      MOV      r0,r5
        0x000019c8:    f000fffc    ....    BL       SPI_RFD ; 0x29c4
        0x000019cc:    2014        .       MOVS     r0,#0x14
        0x000019ce:    49d5        .I      LDR      r1,[pc,#852] ; [0x1d24] = 0x2000000c
        0x000019d0:    6008        .`      STR      r0,[r1,#0]
        0x000019d2:    201e        .       MOVS     r0,#0x1e
        0x000019d4:    49c3        .I      LDR      r1,[pc,#780] ; [0x1ce4] = 0x20000010
        0x000019d6:    6008        .`      STR      r0,[r1,#0]
        0x000019d8:    20af        .       MOVS     r0,#0xaf
        0x000019da:    00c0        ..      LSLS     r0,r0,#3
        0x000019dc:    49c2        .I      LDR      r1,[pc,#776] ; [0x1ce8] = 0x20000014
        0x000019de:    6008        .`      STR      r0,[r1,#0]
        0x000019e0:    2007        .       MOVS     r0,#7
        0x000019e2:    49d1        .I      LDR      r1,[pc,#836] ; [0x1d28] = 0x20002254
        0x000019e4:    6008        .`      STR      r0,[r1,#0]
        0x000019e6:    48d9        .H      LDR      r0,[pc,#868] ; [0x1d4c] = 0x42b6cccd
        0x000019e8:    6048        H`      STR      r0,[r1,#4]
        0x000019ea:    48be        .H      LDR      r0,[pc,#760] ; [0x1ce4] = 0x20000010
        0x000019ec:    6800        .h      LDR      r0,[r0,#0]
        0x000019ee:    6088        .`      STR      r0,[r1,#8]
        0x000019f0:    48bd        .H      LDR      r0,[pc,#756] ; [0x1ce8] = 0x20000014
        0x000019f2:    6800        .h      LDR      r0,[r0,#0]
        0x000019f4:    60c8        .`      STR      r0,[r1,#0xc]
        0x000019f6:    4608        .F      MOV      r0,r1
        0x000019f8:    c80f        ..      LDM      r0,{r0-r3}
        0x000019fa:    f000fc77    ..w.    BL       Channel_control ; 0x22ec
        0x000019fe:    a0d4        ..      ADR      r0,{pc}+0x352 ; 0x1d50
        0x00001a00:    f001f88c    ....    BL       UARTString ; 0x2b1c
        0x00001a04:    200a        .       MOVS     r0,#0xa
        0x00001a06:    f001f89b    ....    BL       WriteUART ; 0x2b40
        0x00001a0a:    e3d6        ..      B        0x21ba ; ChannelSelection_control + 5258
        0x00001a0c:    2c38        8,      CMP      r4,#0x38
        0x00001a0e:    d13a        :.      BNE      0x1a86 ; ChannelSelection_control + 3414
        0x00001a10:    4dbf        .M      LDR      r5,[pc,#764] ; [0x1d10] = 0x43420
        0x00001a12:    4628        (F      MOV      r0,r5
        0x00001a14:    f000ffd6    ....    BL       SPI_RFD ; 0x29c4
        0x00001a18:    4dbe        .M      LDR      r5,[pc,#760] ; [0x1d14] = 0x28bb85
        0x00001a1a:    4628        (F      MOV      r0,r5
        0x00001a1c:    f000ffd2    ....    BL       SPI_RFD ; 0x29c4
        0x00001a20:    4dd3        .M      LDR      r5,[pc,#844] ; [0x1d70] = 0x1db542
        0x00001a22:    4628        (F      MOV      r0,r5
        0x00001a24:    f000ffce    ....    BL       SPI_RFD ; 0x29c4
        0x00001a28:    4dbc        .M      LDR      r5,[pc,#752] ; [0x1d1c] = 0xe141
        0x00001a2a:    4628        (F      MOV      r0,r5
        0x00001a2c:    f000ffca    ....    BL       SPI_RFD ; 0x29c4
        0x00001a30:    4dbb        .M      LDR      r5,[pc,#748] ; [0x1d20] = 0x200016
        0x00001a32:    4628        (F      MOV      r0,r5
        0x00001a34:    f000ffc6    ....    BL       SPI_RFD ; 0x29c4
        0x00001a38:    2504        .%      MOVS     r5,#4
        0x00001a3a:    4628        (F      MOV      r0,r5
        0x00001a3c:    f000ffc2    ....    BL       SPI_RFD ; 0x29c4
        0x00001a40:    2503        .%      MOVS     r5,#3
        0x00001a42:    4628        (F      MOV      r0,r5
        0x00001a44:    f000ffbe    ....    BL       SPI_RFD ; 0x29c4
        0x00001a48:    2014        .       MOVS     r0,#0x14
        0x00001a4a:    49b6        .I      LDR      r1,[pc,#728] ; [0x1d24] = 0x2000000c
        0x00001a4c:    6008        .`      STR      r0,[r1,#0]
        0x00001a4e:    201d        .       MOVS     r0,#0x1d
        0x00001a50:    49a4        .I      LDR      r1,[pc,#656] ; [0x1ce4] = 0x20000010
        0x00001a52:    6008        .`      STR      r0,[r1,#0]
        0x00001a54:    48c7        .H      LDR      r0,[pc,#796] ; [0x1d74] = 0xb54
        0x00001a56:    49a4        .I      LDR      r1,[pc,#656] ; [0x1ce8] = 0x20000014
        0x00001a58:    6008        .`      STR      r0,[r1,#0]
        0x00001a5a:    2008        .       MOVS     r0,#8
        0x00001a5c:    49b2        .I      LDR      r1,[pc,#712] ; [0x1d28] = 0x20002254
        0x00001a5e:    6008        .`      STR      r0,[r1,#0]
        0x00001a60:    48c5        .H      LDR      r0,[pc,#788] ; [0x1d78] = 0x42b3cccd
        0x00001a62:    6048        H`      STR      r0,[r1,#4]
        0x00001a64:    489f        .H      LDR      r0,[pc,#636] ; [0x1ce4] = 0x20000010
        0x00001a66:    6800        .h      LDR      r0,[r0,#0]
        0x00001a68:    6088        .`      STR      r0,[r1,#8]
        0x00001a6a:    489f        .H      LDR      r0,[pc,#636] ; [0x1ce8] = 0x20000014
        0x00001a6c:    6800        .h      LDR      r0,[r0,#0]
        0x00001a6e:    60c8        .`      STR      r0,[r1,#0xc]
        0x00001a70:    4608        .F      MOV      r0,r1
        0x00001a72:    c80f        ..      LDM      r0,{r0-r3}
        0x00001a74:    f000fc3a    ..:.    BL       Channel_control ; 0x22ec
        0x00001a78:    a0c0        ..      ADR      r0,{pc}+0x304 ; 0x1d7c
        0x00001a7a:    f001f84f    ..O.    BL       UARTString ; 0x2b1c
        0x00001a7e:    200a        .       MOVS     r0,#0xa
        0x00001a80:    f001f85e    ..^.    BL       WriteUART ; 0x2b40
        0x00001a84:    e399        ..      B        0x21ba ; ChannelSelection_control + 5258
        0x00001a86:    2c39        9,      CMP      r4,#0x39
        0x00001a88:    d13b        ;.      BNE      0x1b02 ; ChannelSelection_control + 3538
        0x00001a8a:    4da1        .M      LDR      r5,[pc,#644] ; [0x1d10] = 0x43420
        0x00001a8c:    4628        (F      MOV      r0,r5
        0x00001a8e:    f000ff99    ....    BL       SPI_RFD ; 0x29c4
        0x00001a92:    4da0        .M      LDR      r5,[pc,#640] ; [0x1d14] = 0x28bb85
        0x00001a94:    4628        (F      MOV      r0,r5
        0x00001a96:    f000ff95    ....    BL       SPI_RFD ; 0x29c4
        0x00001a9a:    4dc0        .M      LDR      r5,[pc,#768] ; [0x1d9c] = 0x1d3842
        0x00001a9c:    4628        (F      MOV      r0,r5
        0x00001a9e:    f000ff91    ....    BL       SPI_RFD ; 0x29c4
        0x00001aa2:    4d9e        .M      LDR      r5,[pc,#632] ; [0x1d1c] = 0xe141
        0x00001aa4:    4628        (F      MOV      r0,r5
        0x00001aa6:    f000ff8d    ....    BL       SPI_RFD ; 0x29c4
        0x00001aaa:    4d9d        .M      LDR      r5,[pc,#628] ; [0x1d20] = 0x200016
        0x00001aac:    4628        (F      MOV      r0,r5
        0x00001aae:    f000ff89    ....    BL       SPI_RFD ; 0x29c4
        0x00001ab2:    2504        .%      MOVS     r5,#4
        0x00001ab4:    4628        (F      MOV      r0,r5
        0x00001ab6:    f000ff85    ....    BL       SPI_RFD ; 0x29c4
        0x00001aba:    2503        .%      MOVS     r5,#3
        0x00001abc:    4628        (F      MOV      r0,r5
        0x00001abe:    f000ff81    ....    BL       SPI_RFD ; 0x29c4
        0x00001ac2:    2014        .       MOVS     r0,#0x14
        0x00001ac4:    4997        .I      LDR      r1,[pc,#604] ; [0x1d24] = 0x2000000c
        0x00001ac6:    6008        .`      STR      r0,[r1,#0]
        0x00001ac8:    201d        .       MOVS     r0,#0x1d
        0x00001aca:    4986        .I      LDR      r1,[pc,#536] ; [0x1ce4] = 0x20000010
        0x00001acc:    6008        .`      STR      r0,[r1,#0]
        0x00001ace:    20e1        .       MOVS     r0,#0xe1
        0x00001ad0:    0080        ..      LSLS     r0,r0,#2
        0x00001ad2:    4985        .I      LDR      r1,[pc,#532] ; [0x1ce8] = 0x20000014
        0x00001ad4:    6008        .`      STR      r0,[r1,#0]
        0x00001ad6:    2009        .       MOVS     r0,#9
        0x00001ad8:    4993        .I      LDR      r1,[pc,#588] ; [0x1d28] = 0x20002254
        0x00001ada:    6008        .`      STR      r0,[r1,#0]
        0x00001adc:    48b0        .H      LDR      r0,[pc,#704] ; [0x1da0] = 0x42afcccd
        0x00001ade:    6048        H`      STR      r0,[r1,#4]
        0x00001ae0:    4880        .H      LDR      r0,[pc,#512] ; [0x1ce4] = 0x20000010
        0x00001ae2:    6800        .h      LDR      r0,[r0,#0]
        0x00001ae4:    6088        .`      STR      r0,[r1,#8]
        0x00001ae6:    4880        .H      LDR      r0,[pc,#512] ; [0x1ce8] = 0x20000014
        0x00001ae8:    6800        .h      LDR      r0,[r0,#0]
        0x00001aea:    60c8        .`      STR      r0,[r1,#0xc]
        0x00001aec:    4608        .F      MOV      r0,r1
        0x00001aee:    c80f        ..      LDM      r0,{r0-r3}
        0x00001af0:    f000fbfc    ....    BL       Channel_control ; 0x22ec
        0x00001af4:    a0ab        ..      ADR      r0,{pc}+0x2b0 ; 0x1da4
        0x00001af6:    f001f811    ....    BL       UARTString ; 0x2b1c
        0x00001afa:    200a        .       MOVS     r0,#0xa
        0x00001afc:    f001f820    .. .    BL       WriteUART ; 0x2b40
        0x00001b00:    e35b        [.      B        0x21ba ; ChannelSelection_control + 5258
        0x00001b02:    2c7a        z,      CMP      r4,#0x7a
        0x00001b04:    d13b        ;.      BNE      0x1b7e ; ChannelSelection_control + 3662
        0x00001b06:    4d82        .M      LDR      r5,[pc,#520] ; [0x1d10] = 0x43420
        0x00001b08:    4628        (F      MOV      r0,r5
        0x00001b0a:    f000ff5b    ..[.    BL       SPI_RFD ; 0x29c4
        0x00001b0e:    4d81        .M      LDR      r5,[pc,#516] ; [0x1d14] = 0x28bb85
        0x00001b10:    4628        (F      MOV      r0,r5
        0x00001b12:    f000ff57    ..W.    BL       SPI_RFD ; 0x29c4
        0x00001b16:    4dab        .M      LDR      r5,[pc,#684] ; [0x1dc4] = 0x232bc2
        0x00001b18:    4628        (F      MOV      r0,r5
        0x00001b1a:    f000ff53    ..S.    BL       SPI_RFD ; 0x29c4
        0x00001b1e:    4d7f        .M      LDR      r5,[pc,#508] ; [0x1d1c] = 0xe141
        0x00001b20:    4628        (F      MOV      r0,r5
        0x00001b22:    f000ff4f    ..O.    BL       SPI_RFD ; 0x29c4
        0x00001b26:    4d7e        ~M      LDR      r5,[pc,#504] ; [0x1d20] = 0x200016
        0x00001b28:    4628        (F      MOV      r0,r5
        0x00001b2a:    f000ff4b    ..K.    BL       SPI_RFD ; 0x29c4
        0x00001b2e:    2504        .%      MOVS     r5,#4
        0x00001b30:    4628        (F      MOV      r0,r5
        0x00001b32:    f000ff47    ..G.    BL       SPI_RFD ; 0x29c4
        0x00001b36:    2503        .%      MOVS     r5,#3
        0x00001b38:    4628        (F      MOV      r0,r5
        0x00001b3a:    f000ff43    ..C.    BL       SPI_RFD ; 0x29c4
        0x00001b3e:    2014        .       MOVS     r0,#0x14
        0x00001b40:    4978        xI      LDR      r1,[pc,#480] ; [0x1d24] = 0x2000000c
        0x00001b42:    6008        .`      STR      r0,[r1,#0]
        0x00001b44:    2023        #       MOVS     r0,#0x23
        0x00001b46:    4967        gI      LDR      r1,[pc,#412] ; [0x1ce4] = 0x20000010
        0x00001b48:    6008        .`      STR      r0,[r1,#0]
        0x00001b4a:    20af        .       MOVS     r0,#0xaf
        0x00001b4c:    0080        ..      LSLS     r0,r0,#2
        0x00001b4e:    4966        fI      LDR      r1,[pc,#408] ; [0x1ce8] = 0x20000014
        0x00001b50:    6008        .`      STR      r0,[r1,#0]
        0x00001b52:    200a        .       MOVS     r0,#0xa
        0x00001b54:    4974        tI      LDR      r1,[pc,#464] ; [0x1d28] = 0x20002254
        0x00001b56:    6008        .`      STR      r0,[r1,#0]
        0x00001b58:    489b        .H      LDR      r0,[pc,#620] ; [0x1dc8] = 0x42d36666
        0x00001b5a:    6048        H`      STR      r0,[r1,#4]
        0x00001b5c:    4861        aH      LDR      r0,[pc,#388] ; [0x1ce4] = 0x20000010
        0x00001b5e:    6800        .h      LDR      r0,[r0,#0]
        0x00001b60:    6088        .`      STR      r0,[r1,#8]
        0x00001b62:    4861        aH      LDR      r0,[pc,#388] ; [0x1ce8] = 0x20000014
        0x00001b64:    6800        .h      LDR      r0,[r0,#0]
        0x00001b66:    60c8        .`      STR      r0,[r1,#0xc]
        0x00001b68:    4608        .F      MOV      r0,r1
        0x00001b6a:    c80f        ..      LDM      r0,{r0-r3}
        0x00001b6c:    f000fbbe    ....    BL       Channel_control ; 0x22ec
        0x00001b70:    a096        ..      ADR      r0,{pc}+0x25c ; 0x1dcc
        0x00001b72:    f000ffd3    ....    BL       UARTString ; 0x2b1c
        0x00001b76:    200a        .       MOVS     r0,#0xa
        0x00001b78:    f000ffe2    ....    BL       WriteUART ; 0x2b40
        0x00001b7c:    e31d        ..      B        0x21ba ; ChannelSelection_control + 5258
        0x00001b7e:    2c79        y,      CMP      r4,#0x79
        0x00001b80:    d13a        :.      BNE      0x1bf8 ; ChannelSelection_control + 3784
        0x00001b82:    4d63        cM      LDR      r5,[pc,#396] ; [0x1d10] = 0x43420
        0x00001b84:    4628        (F      MOV      r0,r5
        0x00001b86:    f000ff1d    ....    BL       SPI_RFD ; 0x29c4
        0x00001b8a:    4d62        bM      LDR      r5,[pc,#392] ; [0x1d14] = 0x28bb85
        0x00001b8c:    4628        (F      MOV      r0,r5
        0x00001b8e:    f000ff19    ....    BL       SPI_RFD ; 0x29c4
        0x00001b92:    4d94        .M      LDR      r5,[pc,#592] ; [0x1de4] = 0x204b02
        0x00001b94:    4628        (F      MOV      r0,r5
        0x00001b96:    f000ff15    ....    BL       SPI_RFD ; 0x29c4
        0x00001b9a:    4d60        `M      LDR      r5,[pc,#384] ; [0x1d1c] = 0xe141
        0x00001b9c:    4628        (F      MOV      r0,r5
        0x00001b9e:    f000ff11    ....    BL       SPI_RFD ; 0x29c4
        0x00001ba2:    4d5f        _M      LDR      r5,[pc,#380] ; [0x1d20] = 0x200016
        0x00001ba4:    4628        (F      MOV      r0,r5
        0x00001ba6:    f000ff0d    ....    BL       SPI_RFD ; 0x29c4
        0x00001baa:    2504        .%      MOVS     r5,#4
        0x00001bac:    4628        (F      MOV      r0,r5
        0x00001bae:    f000ff09    ....    BL       SPI_RFD ; 0x29c4
        0x00001bb2:    2503        .%      MOVS     r5,#3
        0x00001bb4:    4628        (F      MOV      r0,r5
        0x00001bb6:    f000ff05    ....    BL       SPI_RFD ; 0x29c4
        0x00001bba:    2014        .       MOVS     r0,#0x14
        0x00001bbc:    4959        YI      LDR      r1,[pc,#356] ; [0x1d24] = 0x2000000c
        0x00001bbe:    6008        .`      STR      r0,[r1,#0]
        0x00001bc0:    2022        "       MOVS     r0,#0x22
        0x00001bc2:    4948        HI      LDR      r1,[pc,#288] ; [0x1ce4] = 0x20000010
        0x00001bc4:    6008        .`      STR      r0,[r1,#0]
        0x00001bc6:    4888        .H      LDR      r0,[pc,#544] ; [0x1de8] = 0x9c4
        0x00001bc8:    4947        GI      LDR      r1,[pc,#284] ; [0x1ce8] = 0x20000014
        0x00001bca:    6008        .`      STR      r0,[r1,#0]
        0x00001bcc:    200b        .       MOVS     r0,#0xb
        0x00001bce:    4956        VI      LDR      r1,[pc,#344] ; [0x1d28] = 0x20002254
        0x00001bd0:    6008        .`      STR      r0,[r1,#0]
        0x00001bd2:    4886        .H      LDR      r0,[pc,#536] ; [0x1dec] = 0x42c26666
        0x00001bd4:    6048        H`      STR      r0,[r1,#4]
        0x00001bd6:    4843        CH      LDR      r0,[pc,#268] ; [0x1ce4] = 0x20000010
        0x00001bd8:    6800        .h      LDR      r0,[r0,#0]
        0x00001bda:    6088        .`      STR      r0,[r1,#8]
        0x00001bdc:    4842        BH      LDR      r0,[pc,#264] ; [0x1ce8] = 0x20000014
        0x00001bde:    6800        .h      LDR      r0,[r0,#0]
        0x00001be0:    60c8        .`      STR      r0,[r1,#0xc]
        0x00001be2:    4608        .F      MOV      r0,r1
        0x00001be4:    c80f        ..      LDM      r0,{r0-r3}
        0x00001be6:    f000fb81    ....    BL       Channel_control ; 0x22ec
        0x00001bea:    a081        ..      ADR      r0,{pc}+0x206 ; 0x1df0
        0x00001bec:    f000ff96    ....    BL       UARTString ; 0x2b1c
        0x00001bf0:    200a        .       MOVS     r0,#0xa
        0x00001bf2:    f000ffa5    ....    BL       WriteUART ; 0x2b40
        0x00001bf6:    e2e0        ..      B        0x21ba ; ChannelSelection_control + 5258
        0x00001bf8:    2c78        x,      CMP      r4,#0x78
        0x00001bfa:    d13b        ;.      BNE      0x1c74 ; ChannelSelection_control + 3908
        0x00001bfc:    4d44        DM      LDR      r5,[pc,#272] ; [0x1d10] = 0x43420
        0x00001bfe:    4628        (F      MOV      r0,r5
        0x00001c00:    f000fee0    ....    BL       SPI_RFD ; 0x29c4
        0x00001c04:    4d43        CM      LDR      r5,[pc,#268] ; [0x1d14] = 0x28bb85
        0x00001c06:    4628        (F      MOV      r0,r5
        0x00001c08:    f000fedc    ....    BL       SPI_RFD ; 0x29c4
        0x00001c0c:    4d7e        ~M      LDR      r5,[pc,#504] ; [0x1e08] = 0x21a8c2
        0x00001c0e:    4628        (F      MOV      r0,r5
        0x00001c10:    f000fed8    ....    BL       SPI_RFD ; 0x29c4
        0x00001c14:    4d41        AM      LDR      r5,[pc,#260] ; [0x1d1c] = 0xe141
        0x00001c16:    4628        (F      MOV      r0,r5
        0x00001c18:    f000fed4    ....    BL       SPI_RFD ; 0x29c4
        0x00001c1c:    4d40        @M      LDR      r5,[pc,#256] ; [0x1d20] = 0x200016
        0x00001c1e:    4628        (F      MOV      r0,r5
        0x00001c20:    f000fed0    ....    BL       SPI_RFD ; 0x29c4
        0x00001c24:    2504        .%      MOVS     r5,#4
        0x00001c26:    4628        (F      MOV      r0,r5
        0x00001c28:    f000fecc    ....    BL       SPI_RFD ; 0x29c4
        0x00001c2c:    2503        .%      MOVS     r5,#3
        0x00001c2e:    4628        (F      MOV      r0,r5
        0x00001c30:    f000fec8    ....    BL       SPI_RFD ; 0x29c4
        0x00001c34:    2014        .       MOVS     r0,#0x14
        0x00001c36:    493b        ;I      LDR      r1,[pc,#236] ; [0x1d24] = 0x2000000c
        0x00001c38:    6008        .`      STR      r0,[r1,#0]
        0x00001c3a:    2021        !       MOVS     r0,#0x21
        0x00001c3c:    4929        )I      LDR      r1,[pc,#164] ; [0x1ce4] = 0x20000010
        0x00001c3e:    6008        .`      STR      r0,[r1,#0]
        0x00001c40:    484c        LH      LDR      r0,[pc,#304] ; [0x1d74] = 0xb54
        0x00001c42:    38c8        .8      SUBS     r0,r0,#0xc8
        0x00001c44:    4928        (I      LDR      r1,[pc,#160] ; [0x1ce8] = 0x20000014
        0x00001c46:    6008        .`      STR      r0,[r1,#0]
        0x00001c48:    200c        .       MOVS     r0,#0xc
        0x00001c4a:    4937        7I      LDR      r1,[pc,#220] ; [0x1d28] = 0x20002254
        0x00001c4c:    6008        .`      STR      r0,[r1,#0]
        0x00001c4e:    486f        oH      LDR      r0,[pc,#444] ; [0x1e0c] = 0x42cb6666
        0x00001c50:    6048        H`      STR      r0,[r1,#4]
        0x00001c52:    4824        $H      LDR      r0,[pc,#144] ; [0x1ce4] = 0x20000010
        0x00001c54:    6800        .h      LDR      r0,[r0,#0]
        0x00001c56:    6088        .`      STR      r0,[r1,#8]
        0x00001c58:    4823        #H      LDR      r0,[pc,#140] ; [0x1ce8] = 0x20000014
        0x00001c5a:    6800        .h      LDR      r0,[r0,#0]
        0x00001c5c:    60c8        .`      STR      r0,[r1,#0xc]
        0x00001c5e:    4608        .F      MOV      r0,r1
        0x00001c60:    c80f        ..      LDM      r0,{r0-r3}
        0x00001c62:    f000fb43    ..C.    BL       Channel_control ; 0x22ec
        0x00001c66:    a06a        j.      ADR      r0,{pc}+0x1aa ; 0x1e10
        0x00001c68:    f000ff58    ..X.    BL       UARTString ; 0x2b1c
        0x00001c6c:    200a        .       MOVS     r0,#0xa
        0x00001c6e:    f000ff67    ..g.    BL       WriteUART ; 0x2b40
        0x00001c72:    e2a2        ..      B        0x21ba ; ChannelSelection_control + 5258
        0x00001c74:    2c76        v,      CMP      r4,#0x76
        0x00001c76:    d134        4.      BNE      0x1ce2 ; ChannelSelection_control + 4018
        0x00001c78:    4d25        %M      LDR      r5,[pc,#148] ; [0x1d10] = 0x43420
        0x00001c7a:    4628        (F      MOV      r0,r5
        0x00001c7c:    f000fea2    ....    BL       SPI_RFD ; 0x29c4
        0x00001c80:    4d24        $M      LDR      r5,[pc,#144] ; [0x1d14] = 0x28bb85
        0x00001c82:    4628        (F      MOV      r0,r5
        0x00001c84:    f000fe9e    ....    BL       SPI_RFD ; 0x29c4
        0x00001c88:    4d6a        jM      LDR      r5,[pc,#424] ; [0x1e34] = 0x208342
        0x00001c8a:    4628        (F      MOV      r0,r5
        0x00001c8c:    f000fe9a    ....    BL       SPI_RFD ; 0x29c4
        0x00001c90:    4d22        "M      LDR      r5,[pc,#136] ; [0x1d1c] = 0xe141
        0x00001c92:    4628        (F      MOV      r0,r5
        0x00001c94:    f000fe96    ....    BL       SPI_RFD ; 0x29c4
        0x00001c98:    4d21        !M      LDR      r5,[pc,#132] ; [0x1d20] = 0x200016
        0x00001c9a:    4628        (F      MOV      r0,r5
        0x00001c9c:    f000fe92    ....    BL       SPI_RFD ; 0x29c4
        0x00001ca0:    2504        .%      MOVS     r5,#4
        0x00001ca2:    4628        (F      MOV      r0,r5
        0x00001ca4:    f000fe8e    ....    BL       SPI_RFD ; 0x29c4
        0x00001ca8:    2503        .%      MOVS     r5,#3
        0x00001caa:    4628        (F      MOV      r0,r5
        0x00001cac:    f000fe8a    ....    BL       SPI_RFD ; 0x29c4
        0x00001cb0:    2014        .       MOVS     r0,#0x14
        0x00001cb2:    491c        .I      LDR      r1,[pc,#112] ; [0x1d24] = 0x2000000c
        0x00001cb4:    6008        .`      STR      r0,[r1,#0]
        0x00001cb6:    2020                MOVS     r0,#0x20
        0x00001cb8:    490a        .I      LDR      r1,[pc,#40] ; [0x1ce4] = 0x20000010
        0x00001cba:    6008        .`      STR      r0,[r1,#0]
        0x00001cbc:    485e        ^H      LDR      r0,[pc,#376] ; [0x1e38] = 0x834
        0x00001cbe:    490a        .I      LDR      r1,[pc,#40] ; [0x1ce8] = 0x20000014
        0x00001cc0:    6008        .`      STR      r0,[r1,#0]
        0x00001cc2:    200d        .       MOVS     r0,#0xd
        0x00001cc4:    4918        .I      LDR      r1,[pc,#96] ; [0x1d28] = 0x20002254
        0x00001cc6:    6008        .`      STR      r0,[r1,#0]
        0x00001cc8:    485c        \H      LDR      r0,[pc,#368] ; [0x1e3c] = 0x42c43333
        0x00001cca:    6048        H`      STR      r0,[r1,#4]
        0x00001ccc:    4805        .H      LDR      r0,[pc,#20] ; [0x1ce4] = 0x20000010
        0x00001cce:    6800        .h      LDR      r0,[r0,#0]
        0x00001cd0:    6088        .`      STR      r0,[r1,#8]
        0x00001cd2:    4805        .H      LDR      r0,[pc,#20] ; [0x1ce8] = 0x20000014
        0x00001cd4:    6800        .h      LDR      r0,[r0,#0]
        0x00001cd6:    60c8        .`      STR      r0,[r1,#0xc]
        0x00001cd8:    4608        .F      MOV      r0,r1
        0x00001cda:    c80f        ..      LDM      r0,{r0-r3}
        0x00001cdc:    f000fb06    ....    BL       Channel_control ; 0x22ec
        0x00001ce0:    e0ae        ..      B        0x1e40 ; ChannelSelection_control + 4368
        0x00001ce2:    e0b4        ..      B        0x1e4e ; ChannelSelection_control + 4382
    $d
        0x00001ce4:    20000010    ...     DCD    536870928
        0x00001ce8:    20000014    ...     DCD    536870932
        0x00001cec:    68432020      Ch    DCD    1749229600
        0x00001cf0:    656e6e61    anne    DCD    1701736033
        0x00001cf4:    39203a6c    l: 9    DCD    958413420
        0x00001cf8:    4d342e33    3.4M    DCD    1295265331
        0x00001cfc:    53207a48    Hz S    DCD    1394637384
        0x00001d00:    676e6168    hang    DCD    1735287144
        0x00001d04:    20696168    hai     DCD    543777128
        0x00001d08:    20303939    990     DCD    540031289
        0x00001d0c:    00000000    ....    DCD    0
        0x00001d10:    00043420     4..    DCD    275488
        0x00001d14:    0028bb85    ..(.    DCD    2669445
        0x00001d18:    001f9c42    B...    DCD    2071618
        0x00001d1c:    0000e141    A...    DCD    57665
        0x00001d20:    00200016    .. .    DCD    2097174
        0x00001d24:    2000000c    ...     DCD    536870924
        0x00001d28:    20002254    T".     DCD    536879700
        0x00001d2c:    42bf0000    ...B    DCD    1119813632
        0x00001d30:    68432020      Ch    DCD    1749229600
        0x00001d34:    656e6e61    anne    DCD    1701736033
        0x00001d38:    39203a6c    l: 9    DCD    958413420
        0x00001d3c:    4d352e35    5.5M    DCD    1295330869
        0x00001d40:    20207a48    Hz      DCD    538999368
        0x00001d44:    00000000    ....    DCD    0
        0x00001d48:    001e5782    .W..    DCD    1988482
        0x00001d4c:    42b6cccd    ...B    DCD    1119276237
        0x00001d50:    68432020      Ch    DCD    1749229600
        0x00001d54:    656e6e61    anne    DCD    1701736033
        0x00001d58:    43203a6c    l: C    DCD    1126185580
        0x00001d5c:    3920524e    NR 9    DCD    958419534
        0x00001d60:    4d342e31    1.4M    DCD    1295265329
        0x00001d64:    4a207a48    Hz J    DCD    1243642440
        0x00001d68:    6a676e69    ingj    DCD    1785163369
        0x00001d6c:    00002069    i ..    DCD    8297
        0x00001d70:    001db542    B...    DCD    1946946
        0x00001d74:    00000b54    T...    DCD    2900
        0x00001d78:    42b3cccd    ...B    DCD    1119079629
        0x00001d7c:    68432020      Ch    DCD    1749229600
        0x00001d80:    656e6e61    anne    DCD    1701736033
        0x00001d84:    38203a6c    l: 8    DCD    941636204
        0x00001d88:    4d392e39    9.9M    DCD    1295593017
        0x00001d8c:    44207a48    Hz D    DCD    1142979144
        0x00001d90:    69687375    ushi    DCD    1768452981
        0x00001d94:    32393720     792    DCD    842610464
        0x00001d98:    00000020     ...    DCD    32
        0x00001d9c:    001d3842    B8..    DCD    1914946
        0x00001da0:    42afcccd    ...B    DCD    1118817485
        0x00001da4:    68432020      Ch    DCD    1749229600
        0x00001da8:    656e6e61    anne    DCD    1701736033
        0x00001dac:    38203a6c    l: 8    DCD    941636204
        0x00001db0:    4d392e37    7.9M    DCD    1295593015
        0x00001db4:    20207a48    Hz      DCD    538999368
        0x00001db8:    524e4320     CNR    DCD    1380860704
        0x00001dbc:    2e373820     87.    DCD    775370784
        0x00001dc0:    00002039    9 ..    DCD    8249
        0x00001dc4:    00232bc2    .+#.    DCD    2304962
        0x00001dc8:    42d36666    ff.B    DCD    1121150566
        0x00001dcc:    68432020      Ch    DCD    1749229600
        0x00001dd0:    656e6e61    anne    DCD    1701736033
        0x00001dd4:    31203a6c    l: 1    DCD    824195692
        0x00001dd8:    372e3530    05.7    DCD    925775152
        0x00001ddc:    207a484d    MHz     DCD    544884813
        0x00001de0:    00000020     ...    DCD    32
        0x00001de4:    00204b02    .K .    DCD    2116354
        0x00001de8:    000009c4    ....    DCD    2500
        0x00001dec:    42c26666    ff.B    DCD    1120036454
        0x00001df0:    68432020      Ch    DCD    1749229600
        0x00001df4:    656e6e61    anne    DCD    1701736033
        0x00001df8:    39203a6c    l: 9    DCD    958413420
        0x00001dfc:    4d322e37    7.2M    DCD    1295134263
        0x00001e00:    20207a48    Hz      DCD    538999368
        0x00001e04:    00000000    ....    DCD    0
        0x00001e08:    0021a8c2    ..!.    DCD    2205890
        0x00001e0c:    42cb6666    ff.B    DCD    1120626278
        0x00001e10:    68432020      Ch    DCD    1749229600
        0x00001e14:    656e6e61    anne    DCD    1701736033
        0x00001e18:    31203a6c    l: 1    DCD    824195692
        0x00001e1c:    372e3130    01.7    DCD    925774128
        0x00001e20:    207a484d    MHz     DCD    544884813
        0x00001e24:    6e6f4420     Don    DCD    1852785696
        0x00001e28:    6e616767    ggan    DCD    1851877223
        0x00001e2c:    31303120     101    DCD    825241888
        0x00001e30:    0020372e    .7 .    DCD    2111278
        0x00001e34:    00208342    B. .    DCD    2130754
        0x00001e38:    00000834    4...    DCD    2100
        0x00001e3c:    42c43333    33.B    DCD    1120154419
    $t
        0x00001e40:    a0de        ..      ADR      r0,{pc}+0x37c ; 0x21bc
        0x00001e42:    f000fe6b    ..k.    BL       UARTString ; 0x2b1c
        0x00001e46:    200a        .       MOVS     r0,#0xa
        0x00001e48:    f000fe7a    ..z.    BL       WriteUART ; 0x2b40
        0x00001e4c:    e1b5        ..      B        0x21ba ; ChannelSelection_control + 5258
        0x00001e4e:    2c77        w,      CMP      r4,#0x77
        0x00001e50:    d13a        :.      BNE      0x1ec8 ; ChannelSelection_control + 4504
        0x00001e52:    4ddf        .M      LDR      r5,[pc,#892] ; [0x21d0] = 0x43420
        0x00001e54:    4628        (F      MOV      r0,r5
        0x00001e56:    f000fdb5    ....    BL       SPI_RFD ; 0x29c4
        0x00001e5a:    4dde        .M      LDR      r5,[pc,#888] ; [0x21d4] = 0x28bb85
        0x00001e5c:    4628        (F      MOV      r0,r5
        0x00001e5e:    f000fdb1    ....    BL       SPI_RFD ; 0x29c4
        0x00001e62:    4ddd        .M      LDR      r5,[pc,#884] ; [0x21d8] = 0x2144c2
        0x00001e64:    4628        (F      MOV      r0,r5
        0x00001e66:    f000fdad    ....    BL       SPI_RFD ; 0x29c4
        0x00001e6a:    4ddc        .M      LDR      r5,[pc,#880] ; [0x21dc] = 0xe141
        0x00001e6c:    4628        (F      MOV      r0,r5
        0x00001e6e:    f000fda9    ....    BL       SPI_RFD ; 0x29c4
        0x00001e72:    4ddb        .M      LDR      r5,[pc,#876] ; [0x21e0] = 0x200016
        0x00001e74:    4628        (F      MOV      r0,r5
        0x00001e76:    f000fda5    ....    BL       SPI_RFD ; 0x29c4
        0x00001e7a:    2504        .%      MOVS     r5,#4
        0x00001e7c:    4628        (F      MOV      r0,r5
        0x00001e7e:    f000fda1    ....    BL       SPI_RFD ; 0x29c4
        0x00001e82:    2503        .%      MOVS     r5,#3
        0x00001e84:    4628        (F      MOV      r0,r5
        0x00001e86:    f000fd9d    ....    BL       SPI_RFD ; 0x29c4
        0x00001e8a:    2014        .       MOVS     r0,#0x14
        0x00001e8c:    49d5        .I      LDR      r1,[pc,#852] ; [0x21e4] = 0x2000000c
        0x00001e8e:    6008        .`      STR      r0,[r1,#0]
        0x00001e90:    2020                MOVS     r0,#0x20
        0x00001e92:    49d5        .I      LDR      r1,[pc,#852] ; [0x21e8] = 0x20000010
        0x00001e94:    6008        .`      STR      r0,[r1,#0]
        0x00001e96:    48d5        .H      LDR      r0,[pc,#852] ; [0x21ec] = 0x834
        0x00001e98:    49d5        .I      LDR      r1,[pc,#852] ; [0x21f0] = 0x20000014
        0x00001e9a:    6008        .`      STR      r0,[r1,#0]
        0x00001e9c:    200e        .       MOVS     r0,#0xe
        0x00001e9e:    49d5        .I      LDR      r1,[pc,#852] ; [0x21f4] = 0x20002254
        0x00001ea0:    6008        .`      STR      r0,[r1,#0]
        0x00001ea2:    48d5        .H      LDR      r0,[pc,#852] ; [0x21f8] = 0x42c83333
        0x00001ea4:    6048        H`      STR      r0,[r1,#4]
        0x00001ea6:    48d0        .H      LDR      r0,[pc,#832] ; [0x21e8] = 0x20000010
        0x00001ea8:    6800        .h      LDR      r0,[r0,#0]
        0x00001eaa:    6088        .`      STR      r0,[r1,#8]
        0x00001eac:    48d0        .H      LDR      r0,[pc,#832] ; [0x21f0] = 0x20000014
        0x00001eae:    6800        .h      LDR      r0,[r0,#0]
        0x00001eb0:    60c8        .`      STR      r0,[r1,#0xc]
        0x00001eb2:    4608        .F      MOV      r0,r1
        0x00001eb4:    c80f        ..      LDM      r0,{r0-r3}
        0x00001eb6:    f000fa19    ....    BL       Channel_control ; 0x22ec
        0x00001eba:    a0d0        ..      ADR      r0,{pc}+0x342 ; 0x21fc
        0x00001ebc:    f000fe2e    ....    BL       UARTString ; 0x2b1c
        0x00001ec0:    200a        .       MOVS     r0,#0xa
        0x00001ec2:    f000fe3d    ..=.    BL       WriteUART ; 0x2b40
        0x00001ec6:    e178        x.      B        0x21ba ; ChannelSelection_control + 5258
        0x00001ec8:    2c61        a,      CMP      r4,#0x61
        0x00001eca:    d13b        ;.      BNE      0x1f44 ; ChannelSelection_control + 4628
        0x00001ecc:    4dc0        .M      LDR      r5,[pc,#768] ; [0x21d0] = 0x43420
        0x00001ece:    4628        (F      MOV      r0,r5
        0x00001ed0:    f000fd78    ..x.    BL       SPI_RFD ; 0x29c4
        0x00001ed4:    4dbf        .M      LDR      r5,[pc,#764] ; [0x21d4] = 0x28bb85
        0x00001ed6:    4628        (F      MOV      r0,r5
        0x00001ed8:    f000fd74    ..t.    BL       SPI_RFD ; 0x29c4
        0x00001edc:    4dcd        .M      LDR      r5,[pc,#820] ; [0x2214] = 0x2176c2
        0x00001ede:    4628        (F      MOV      r0,r5
        0x00001ee0:    f000fd70    ..p.    BL       SPI_RFD ; 0x29c4
        0x00001ee4:    4dbd        .M      LDR      r5,[pc,#756] ; [0x21dc] = 0xe141
        0x00001ee6:    4628        (F      MOV      r0,r5
        0x00001ee8:    f000fd6c    ..l.    BL       SPI_RFD ; 0x29c4
        0x00001eec:    4dbc        .M      LDR      r5,[pc,#752] ; [0x21e0] = 0x200016
        0x00001eee:    4628        (F      MOV      r0,r5
        0x00001ef0:    f000fd68    ..h.    BL       SPI_RFD ; 0x29c4
        0x00001ef4:    2504        .%      MOVS     r5,#4
        0x00001ef6:    4628        (F      MOV      r0,r5
        0x00001ef8:    f000fd64    ..d.    BL       SPI_RFD ; 0x29c4
        0x00001efc:    2503        .%      MOVS     r5,#3
        0x00001efe:    4628        (F      MOV      r0,r5
        0x00001f00:    f000fd60    ..`.    BL       SPI_RFD ; 0x29c4
        0x00001f04:    2014        .       MOVS     r0,#0x14
        0x00001f06:    49b7        .I      LDR      r1,[pc,#732] ; [0x21e4] = 0x2000000c
        0x00001f08:    6008        .`      STR      r0,[r1,#0]
        0x00001f0a:    2021        !       MOVS     r0,#0x21
        0x00001f0c:    49b6        .I      LDR      r1,[pc,#728] ; [0x21e8] = 0x20000010
        0x00001f0e:    6008        .`      STR      r0,[r1,#0]
        0x00001f10:    48b6        .H      LDR      r0,[pc,#728] ; [0x21ec] = 0x834
        0x00001f12:    38c8        .8      SUBS     r0,r0,#0xc8
        0x00001f14:    49b6        .I      LDR      r1,[pc,#728] ; [0x21f0] = 0x20000014
        0x00001f16:    6008        .`      STR      r0,[r1,#0]
        0x00001f18:    200f        .       MOVS     r0,#0xf
        0x00001f1a:    49b6        .I      LDR      r1,[pc,#728] ; [0x21f4] = 0x20002254
        0x00001f1c:    6008        .`      STR      r0,[r1,#0]
        0x00001f1e:    48be        .H      LDR      r0,[pc,#760] ; [0x2218] = 0x42c9cccd
        0x00001f20:    6048        H`      STR      r0,[r1,#4]
        0x00001f22:    48b1        .H      LDR      r0,[pc,#708] ; [0x21e8] = 0x20000010
        0x00001f24:    6800        .h      LDR      r0,[r0,#0]
        0x00001f26:    6088        .`      STR      r0,[r1,#8]
        0x00001f28:    48b1        .H      LDR      r0,[pc,#708] ; [0x21f0] = 0x20000014
        0x00001f2a:    6800        .h      LDR      r0,[r0,#0]
        0x00001f2c:    60c8        .`      STR      r0,[r1,#0xc]
        0x00001f2e:    4608        .F      MOV      r0,r1
        0x00001f30:    c80f        ..      LDM      r0,{r0-r3}
        0x00001f32:    f000f9db    ....    BL       Channel_control ; 0x22ec
        0x00001f36:    a0b9        ..      ADR      r0,{pc}+0x2e6 ; 0x221c
        0x00001f38:    f000fdf0    ....    BL       UARTString ; 0x2b1c
        0x00001f3c:    200a        .       MOVS     r0,#0xa
        0x00001f3e:    f000fdff    ....    BL       WriteUART ; 0x2b40
        0x00001f42:    e13a        :.      B        0x21ba ; ChannelSelection_control + 5258
        0x00001f44:    2c62        b,      CMP      r4,#0x62
        0x00001f46:    d13a        :.      BNE      0x1fbe ; ChannelSelection_control + 4750
        0x00001f48:    4da1        .M      LDR      r5,[pc,#644] ; [0x21d0] = 0x43420
        0x00001f4a:    4628        (F      MOV      r0,r5
        0x00001f4c:    f000fd3a    ..:.    BL       SPI_RFD ; 0x29c4
        0x00001f50:    4da0        .M      LDR      r5,[pc,#640] ; [0x21d4] = 0x28bb85
        0x00001f52:    4628        (F      MOV      r0,r5
        0x00001f54:    f000fd36    ..6.    BL       SPI_RFD ; 0x29c4
        0x00001f58:    4db6        .M      LDR      r5,[pc,#728] ; [0x2234] = 0x226a42
        0x00001f5a:    4628        (F      MOV      r0,r5
        0x00001f5c:    f000fd32    ..2.    BL       SPI_RFD ; 0x29c4
        0x00001f60:    4d9e        .M      LDR      r5,[pc,#632] ; [0x21dc] = 0xe141
        0x00001f62:    4628        (F      MOV      r0,r5
        0x00001f64:    f000fd2e    ....    BL       SPI_RFD ; 0x29c4
        0x00001f68:    4d9d        .M      LDR      r5,[pc,#628] ; [0x21e0] = 0x200016
        0x00001f6a:    4628        (F      MOV      r0,r5
        0x00001f6c:    f000fd2a    ..*.    BL       SPI_RFD ; 0x29c4
        0x00001f70:    2504        .%      MOVS     r5,#4
        0x00001f72:    4628        (F      MOV      r0,r5
        0x00001f74:    f000fd26    ..&.    BL       SPI_RFD ; 0x29c4
        0x00001f78:    2503        .%      MOVS     r5,#3
        0x00001f7a:    4628        (F      MOV      r0,r5
        0x00001f7c:    f000fd22    ..".    BL       SPI_RFD ; 0x29c4
        0x00001f80:    2014        .       MOVS     r0,#0x14
        0x00001f82:    4998        .I      LDR      r1,[pc,#608] ; [0x21e4] = 0x2000000c
        0x00001f84:    6008        .`      STR      r0,[r1,#0]
        0x00001f86:    2022        "       MOVS     r0,#0x22
        0x00001f88:    4997        .I      LDR      r1,[pc,#604] ; [0x21e8] = 0x20000010
        0x00001f8a:    6008        .`      STR      r0,[r1,#0]
        0x00001f8c:    48aa        .H      LDR      r0,[pc,#680] ; [0x2238] = 0x6a4
        0x00001f8e:    4998        .I      LDR      r1,[pc,#608] ; [0x21f0] = 0x20000014
        0x00001f90:    6008        .`      STR      r0,[r1,#0]
        0x00001f92:    2010        .       MOVS     r0,#0x10
        0x00001f94:    4997        .I      LDR      r1,[pc,#604] ; [0x21f4] = 0x20002254
        0x00001f96:    6008        .`      STR      r0,[r1,#0]
        0x00001f98:    48a8        .H      LDR      r0,[pc,#672] ; [0x223c] = 0x42cf6666
        0x00001f9a:    6048        H`      STR      r0,[r1,#4]
        0x00001f9c:    4892        .H      LDR      r0,[pc,#584] ; [0x21e8] = 0x20000010
        0x00001f9e:    6800        .h      LDR      r0,[r0,#0]
        0x00001fa0:    6088        .`      STR      r0,[r1,#8]
        0x00001fa2:    4893        .H      LDR      r0,[pc,#588] ; [0x21f0] = 0x20000014
        0x00001fa4:    6800        .h      LDR      r0,[r0,#0]
        0x00001fa6:    60c8        .`      STR      r0,[r1,#0xc]
        0x00001fa8:    4608        .F      MOV      r0,r1
        0x00001faa:    c80f        ..      LDM      r0,{r0-r3}
        0x00001fac:    f000f99e    ....    BL       Channel_control ; 0x22ec
        0x00001fb0:    a0a3        ..      ADR      r0,{pc}+0x290 ; 0x2240
        0x00001fb2:    f000fdb3    ....    BL       UARTString ; 0x2b1c
        0x00001fb6:    200a        .       MOVS     r0,#0xa
        0x00001fb8:    f000fdc2    ....    BL       WriteUART ; 0x2b40
        0x00001fbc:    e0fd        ..      B        0x21ba ; ChannelSelection_control + 5258
        0x00001fbe:    2c63        c,      CMP      r4,#0x63
        0x00001fc0:    d13b        ;.      BNE      0x203a ; ChannelSelection_control + 4874
        0x00001fc2:    4d83        .M      LDR      r5,[pc,#524] ; [0x21d0] = 0x43420
        0x00001fc4:    4628        (F      MOV      r0,r5
        0x00001fc6:    f000fcfd    ....    BL       SPI_RFD ; 0x29c4
        0x00001fca:    4d82        .M      LDR      r5,[pc,#520] ; [0x21d4] = 0x28bb85
        0x00001fcc:    4628        (F      MOV      r0,r5
        0x00001fce:    f000fcf9    ....    BL       SPI_RFD ; 0x29c4
        0x00001fd2:    4da1        .M      LDR      r5,[pc,#644] ; [0x2258] = 0x222bc2
        0x00001fd4:    4628        (F      MOV      r0,r5
        0x00001fd6:    f000fcf5    ....    BL       SPI_RFD ; 0x29c4
        0x00001fda:    4d80        .M      LDR      r5,[pc,#512] ; [0x21dc] = 0xe141
        0x00001fdc:    4628        (F      MOV      r0,r5
        0x00001fde:    f000fcf1    ....    BL       SPI_RFD ; 0x29c4
        0x00001fe2:    4d7f        .M      LDR      r5,[pc,#508] ; [0x21e0] = 0x200016
        0x00001fe4:    4628        (F      MOV      r0,r5
        0x00001fe6:    f000fced    ....    BL       SPI_RFD ; 0x29c4
        0x00001fea:    2504        .%      MOVS     r5,#4
        0x00001fec:    4628        (F      MOV      r0,r5
        0x00001fee:    f000fce9    ....    BL       SPI_RFD ; 0x29c4
        0x00001ff2:    2503        .%      MOVS     r5,#3
        0x00001ff4:    4628        (F      MOV      r0,r5
        0x00001ff6:    f000fce5    ....    BL       SPI_RFD ; 0x29c4
        0x00001ffa:    2014        .       MOVS     r0,#0x14
        0x00001ffc:    4979        yI      LDR      r1,[pc,#484] ; [0x21e4] = 0x2000000c
        0x00001ffe:    6008        .`      STR      r0,[r1,#0]
        0x00002000:    2022        "       MOVS     r0,#0x22
        0x00002002:    4979        yI      LDR      r1,[pc,#484] ; [0x21e8] = 0x20000010
        0x00002004:    6008        .`      STR      r0,[r1,#0]
        0x00002006:    20af        .       MOVS     r0,#0xaf
        0x00002008:    0080        ..      LSLS     r0,r0,#2
        0x0000200a:    4979        yI      LDR      r1,[pc,#484] ; [0x21f0] = 0x20000014
        0x0000200c:    6008        .`      STR      r0,[r1,#0]
        0x0000200e:    2011        .       MOVS     r0,#0x11
        0x00002010:    4978        xI      LDR      r1,[pc,#480] ; [0x21f4] = 0x20002254
        0x00002012:    6008        .`      STR      r0,[r1,#0]
        0x00002014:    4891        .H      LDR      r0,[pc,#580] ; [0x225c] = 0x42cd6666
        0x00002016:    6048        H`      STR      r0,[r1,#4]
        0x00002018:    4873        sH      LDR      r0,[pc,#460] ; [0x21e8] = 0x20000010
        0x0000201a:    6800        .h      LDR      r0,[r0,#0]
        0x0000201c:    6088        .`      STR      r0,[r1,#8]
        0x0000201e:    4874        tH      LDR      r0,[pc,#464] ; [0x21f0] = 0x20000014
        0x00002020:    6800        .h      LDR      r0,[r0,#0]
        0x00002022:    60c8        .`      STR      r0,[r1,#0xc]
        0x00002024:    4608        .F      MOV      r0,r1
        0x00002026:    c80f        ..      LDM      r0,{r0-r3}
        0x00002028:    f000f960    ..`.    BL       Channel_control ; 0x22ec
        0x0000202c:    a08c        ..      ADR      r0,{pc}+0x234 ; 0x2260
        0x0000202e:    f000fd75    ..u.    BL       UARTString ; 0x2b1c
        0x00002032:    200a        .       MOVS     r0,#0xa
        0x00002034:    f000fd84    ....    BL       WriteUART ; 0x2b40
        0x00002038:    e0bf        ..      B        0x21ba ; ChannelSelection_control + 5258
        0x0000203a:    2c64        d,      CMP      r4,#0x64
        0x0000203c:    d13b        ;.      BNE      0x20b6 ; ChannelSelection_control + 4998
        0x0000203e:    4d64        dM      LDR      r5,[pc,#400] ; [0x21d0] = 0x43420
        0x00002040:    4628        (F      MOV      r0,r5
        0x00002042:    f000fcbf    ....    BL       SPI_RFD ; 0x29c4
        0x00002046:    4d63        cM      LDR      r5,[pc,#396] ; [0x21d4] = 0x28bb85
        0x00002048:    4628        (F      MOV      r0,r5
        0x0000204a:    f000fcbb    ....    BL       SPI_RFD ; 0x29c4
        0x0000204e:    4d8a        .M      LDR      r5,[pc,#552] ; [0x2278] = 0x235dc2
        0x00002050:    4628        (F      MOV      r0,r5
        0x00002052:    f000fcb7    ....    BL       SPI_RFD ; 0x29c4
        0x00002056:    4d61        aM      LDR      r5,[pc,#388] ; [0x21dc] = 0xe141
        0x00002058:    4628        (F      MOV      r0,r5
        0x0000205a:    f000fcb3    ....    BL       SPI_RFD ; 0x29c4
        0x0000205e:    4d60        `M      LDR      r5,[pc,#384] ; [0x21e0] = 0x200016
        0x00002060:    4628        (F      MOV      r0,r5
        0x00002062:    f000fcaf    ....    BL       SPI_RFD ; 0x29c4
        0x00002066:    2504        .%      MOVS     r5,#4
        0x00002068:    4628        (F      MOV      r0,r5
        0x0000206a:    f000fcab    ....    BL       SPI_RFD ; 0x29c4
        0x0000206e:    2503        .%      MOVS     r5,#3
        0x00002070:    4628        (F      MOV      r0,r5
        0x00002072:    f000fca7    ....    BL       SPI_RFD ; 0x29c4
        0x00002076:    2014        .       MOVS     r0,#0x14
        0x00002078:    495a        ZI      LDR      r1,[pc,#360] ; [0x21e4] = 0x2000000c
        0x0000207a:    6008        .`      STR      r0,[r1,#0]
        0x0000207c:    2023        #       MOVS     r0,#0x23
        0x0000207e:    495a        ZI      LDR      r1,[pc,#360] ; [0x21e8] = 0x20000010
        0x00002080:    6008        .`      STR      r0,[r1,#0]
        0x00002082:    486d        mH      LDR      r0,[pc,#436] ; [0x2238] = 0x6a4
        0x00002084:    38c8        .8      SUBS     r0,r0,#0xc8
        0x00002086:    495a        ZI      LDR      r1,[pc,#360] ; [0x21f0] = 0x20000014
        0x00002088:    6008        .`      STR      r0,[r1,#0]
        0x0000208a:    2012        .       MOVS     r0,#0x12
        0x0000208c:    4959        YI      LDR      r1,[pc,#356] ; [0x21f4] = 0x20002254
        0x0000208e:    6008        .`      STR      r0,[r1,#0]
        0x00002090:    487a        zH      LDR      r0,[pc,#488] ; [0x227c] = 0x42d50000
        0x00002092:    6048        H`      STR      r0,[r1,#4]
        0x00002094:    4854        TH      LDR      r0,[pc,#336] ; [0x21e8] = 0x20000010
        0x00002096:    6800        .h      LDR      r0,[r0,#0]
        0x00002098:    6088        .`      STR      r0,[r1,#8]
        0x0000209a:    4855        UH      LDR      r0,[pc,#340] ; [0x21f0] = 0x20000014
        0x0000209c:    6800        .h      LDR      r0,[r0,#0]
        0x0000209e:    60c8        .`      STR      r0,[r1,#0xc]
        0x000020a0:    4608        .F      MOV      r0,r1
        0x000020a2:    c80f        ..      LDM      r0,{r0-r3}
        0x000020a4:    f000f922    ..".    BL       Channel_control ; 0x22ec
        0x000020a8:    a075        u.      ADR      r0,{pc}+0x1d8 ; 0x2280
        0x000020aa:    f000fd37    ..7.    BL       UARTString ; 0x2b1c
        0x000020ae:    200a        .       MOVS     r0,#0xa
        0x000020b0:    f000fd46    ..F.    BL       WriteUART ; 0x2b40
        0x000020b4:    e081        ..      B        0x21ba ; ChannelSelection_control + 5258
        0x000020b6:    2c65        e,      CMP      r4,#0x65
        0x000020b8:    d13b        ;.      BNE      0x2132 ; ChannelSelection_control + 5122
        0x000020ba:    4d45        EM      LDR      r5,[pc,#276] ; [0x21d0] = 0x43420
        0x000020bc:    4628        (F      MOV      r0,r5
        0x000020be:    f000fc81    ....    BL       SPI_RFD ; 0x29c4
        0x000020c2:    4d44        DM      LDR      r5,[pc,#272] ; [0x21d4] = 0x28bb85
        0x000020c4:    4628        (F      MOV      r0,r5
        0x000020c6:    f000fc7d    ..}.    BL       SPI_RFD ; 0x29c4
        0x000020ca:    4d73        sM      LDR      r5,[pc,#460] ; [0x2298] = 0x238982
        0x000020cc:    4628        (F      MOV      r0,r5
        0x000020ce:    f000fc79    ..y.    BL       SPI_RFD ; 0x29c4
        0x000020d2:    4d42        BM      LDR      r5,[pc,#264] ; [0x21dc] = 0xe141
        0x000020d4:    4628        (F      MOV      r0,r5
        0x000020d6:    f000fc75    ..u.    BL       SPI_RFD ; 0x29c4
        0x000020da:    4d41        AM      LDR      r5,[pc,#260] ; [0x21e0] = 0x200016
        0x000020dc:    4628        (F      MOV      r0,r5
        0x000020de:    f000fc71    ..q.    BL       SPI_RFD ; 0x29c4
        0x000020e2:    2504        .%      MOVS     r5,#4
        0x000020e4:    4628        (F      MOV      r0,r5
        0x000020e6:    f000fc6d    ..m.    BL       SPI_RFD ; 0x29c4
        0x000020ea:    2503        .%      MOVS     r5,#3
        0x000020ec:    4628        (F      MOV      r0,r5
        0x000020ee:    f000fc69    ..i.    BL       SPI_RFD ; 0x29c4
        0x000020f2:    2014        .       MOVS     r0,#0x14
        0x000020f4:    493b        ;I      LDR      r1,[pc,#236] ; [0x21e4] = 0x2000000c
        0x000020f6:    6008        .`      STR      r0,[r1,#0]
        0x000020f8:    2023        #       MOVS     r0,#0x23
        0x000020fa:    493b        ;I      LDR      r1,[pc,#236] ; [0x21e8] = 0x20000010
        0x000020fc:    6008        .`      STR      r0,[r1,#0]
        0x000020fe:    484e        NH      LDR      r0,[pc,#312] ; [0x2238] = 0x6a4
        0x00002100:    38c8        .8      SUBS     r0,r0,#0xc8
        0x00002102:    493b        ;I      LDR      r1,[pc,#236] ; [0x21f0] = 0x20000014
        0x00002104:    6008        .`      STR      r0,[r1,#0]
        0x00002106:    2013        .       MOVS     r0,#0x13
        0x00002108:    493a        :I      LDR      r1,[pc,#232] ; [0x21f4] = 0x20002254
        0x0000210a:    6008        .`      STR      r0,[r1,#0]
        0x0000210c:    4863        cH      LDR      r0,[pc,#396] ; [0x229c] = 0x42d66666
        0x0000210e:    6048        H`      STR      r0,[r1,#4]
        0x00002110:    4835        5H      LDR      r0,[pc,#212] ; [0x21e8] = 0x20000010
        0x00002112:    6800        .h      LDR      r0,[r0,#0]
        0x00002114:    6088        .`      STR      r0,[r1,#8]
        0x00002116:    4836        6H      LDR      r0,[pc,#216] ; [0x21f0] = 0x20000014
        0x00002118:    6800        .h      LDR      r0,[r0,#0]
        0x0000211a:    60c8        .`      STR      r0,[r1,#0xc]
        0x0000211c:    4608        .F      MOV      r0,r1
        0x0000211e:    c80f        ..      LDM      r0,{r0-r3}
        0x00002120:    f000f8e4    ....    BL       Channel_control ; 0x22ec
        0x00002124:    a05e        ^.      ADR      r0,{pc}+0x17c ; 0x22a0
        0x00002126:    f000fcf9    ....    BL       UARTString ; 0x2b1c
        0x0000212a:    200a        .       MOVS     r0,#0xa
        0x0000212c:    f000fd08    ....    BL       WriteUART ; 0x2b40
        0x00002130:    e043        C.      B        0x21ba ; ChannelSelection_control + 5258
        0x00002132:    2c68        h,      CMP      r4,#0x68
        0x00002134:    d13b        ;.      BNE      0x21ae ; ChannelSelection_control + 5246
        0x00002136:    4d26        &M      LDR      r5,[pc,#152] ; [0x21d0] = 0x43420
        0x00002138:    4628        (F      MOV      r0,r5
        0x0000213a:    f000fc43    ..C.    BL       SPI_RFD ; 0x29c4
        0x0000213e:    4d25        %M      LDR      r5,[pc,#148] ; [0x21d4] = 0x28bb85
        0x00002140:    4628        (F      MOV      r0,r5
        0x00002142:    f000fc3f    ..?.    BL       SPI_RFD ; 0x29c4
        0x00002146:    4d5c        \M      LDR      r5,[pc,#368] ; [0x22b8] = 0x23a8c2
        0x00002148:    4628        (F      MOV      r0,r5
        0x0000214a:    f000fc3b    ..;.    BL       SPI_RFD ; 0x29c4
        0x0000214e:    4d23        #M      LDR      r5,[pc,#140] ; [0x21dc] = 0xe141
        0x00002150:    4628        (F      MOV      r0,r5
        0x00002152:    f000fc37    ..7.    BL       SPI_RFD ; 0x29c4
        0x00002156:    4d22        "M      LDR      r5,[pc,#136] ; [0x21e0] = 0x200016
        0x00002158:    4628        (F      MOV      r0,r5
        0x0000215a:    f000fc33    ..3.    BL       SPI_RFD ; 0x29c4
        0x0000215e:    2504        .%      MOVS     r5,#4
        0x00002160:    4628        (F      MOV      r0,r5
        0x00002162:    f000fc2f    ../.    BL       SPI_RFD ; 0x29c4
        0x00002166:    2503        .%      MOVS     r5,#3
        0x00002168:    4628        (F      MOV      r0,r5
        0x0000216a:    f000fc2b    ..+.    BL       SPI_RFD ; 0x29c4
        0x0000216e:    2014        .       MOVS     r0,#0x14
        0x00002170:    491c        .I      LDR      r1,[pc,#112] ; [0x21e4] = 0x2000000c
        0x00002172:    6008        .`      STR      r0,[r1,#0]
        0x00002174:    2023        #       MOVS     r0,#0x23
        0x00002176:    491c        .I      LDR      r1,[pc,#112] ; [0x21e8] = 0x20000010
        0x00002178:    6008        .`      STR      r0,[r1,#0]
        0x0000217a:    482f        /H      LDR      r0,[pc,#188] ; [0x2238] = 0x6a4
        0x0000217c:    38c8        .8      SUBS     r0,r0,#0xc8
        0x0000217e:    491c        .I      LDR      r1,[pc,#112] ; [0x21f0] = 0x20000014
        0x00002180:    6008        .`      STR      r0,[r1,#0]
        0x00002182:    2014        .       MOVS     r0,#0x14
        0x00002184:    491b        .I      LDR      r1,[pc,#108] ; [0x21f4] = 0x20002254
        0x00002186:    6008        .`      STR      r0,[r1,#0]
        0x00002188:    484c        LH      LDR      r0,[pc,#304] ; [0x22bc] = 0x42d76666
        0x0000218a:    6048        H`      STR      r0,[r1,#4]
        0x0000218c:    4816        .H      LDR      r0,[pc,#88] ; [0x21e8] = 0x20000010
        0x0000218e:    6800        .h      LDR      r0,[r0,#0]
        0x00002190:    6088        .`      STR      r0,[r1,#8]
        0x00002192:    4817        .H      LDR      r0,[pc,#92] ; [0x21f0] = 0x20000014
        0x00002194:    6800        .h      LDR      r0,[r0,#0]
        0x00002196:    60c8        .`      STR      r0,[r1,#0xc]
        0x00002198:    4608        .F      MOV      r0,r1
        0x0000219a:    c80f        ..      LDM      r0,{r0-r3}
        0x0000219c:    f000f8a6    ....    BL       Channel_control ; 0x22ec
        0x000021a0:    a047        G.      ADR      r0,{pc}+0x120 ; 0x22c0
        0x000021a2:    f000fcbb    ....    BL       UARTString ; 0x2b1c
        0x000021a6:    200a        .       MOVS     r0,#0xa
        0x000021a8:    f000fcca    ....    BL       WriteUART ; 0x2b40
        0x000021ac:    e005        ..      B        0x21ba ; ChannelSelection_control + 5258
        0x000021ae:    a04a        J.      ADR      r0,{pc}+0x12a ; 0x22d8
        0x000021b0:    f000fcb4    ....    BL       UARTString ; 0x2b1c
        0x000021b4:    200a        .       MOVS     r0,#0xa
        0x000021b6:    f000fcc3    ....    BL       WriteUART ; 0x2b40
        0x000021ba:    bd70        p.      POP      {r4-r6,pc}
    $d
        0x000021bc:    68432020      Ch    DCD    1749229600
        0x000021c0:    656e6e61    anne    DCD    1701736033
        0x000021c4:    39203a6c    l: 9    DCD    958413420
        0x000021c8:    4d312e38    8.1M    DCD    1295068728
        0x000021cc:    00207a48    Hz .    DCD    2128456
        0x000021d0:    00043420     4..    DCD    275488
        0x000021d4:    0028bb85    ..(.    DCD    2669445
        0x000021d8:    002144c2    .D!.    DCD    2180290
        0x000021dc:    0000e141    A...    DCD    57665
        0x000021e0:    00200016    .. .    DCD    2097174
        0x000021e4:    2000000c    ...     DCD    536870924
        0x000021e8:    20000010    ...     DCD    536870928
        0x000021ec:    00000834    4...    DCD    2100
        0x000021f0:    20000014    ...     DCD    536870932
        0x000021f4:    20002254    T".     DCD    536879700
        0x000021f8:    42c83333    33.B    DCD    1120416563
        0x000021fc:    68432020      Ch    DCD    1749229600
        0x00002200:    656e6e61    anne    DCD    1701736033
        0x00002204:    31203a6c    l: 1    DCD    824195692
        0x00002208:    312e3030    00.1    DCD    825110576
        0x0000220c:    207a484d    MHz     DCD    544884813
        0x00002210:    00000000    ....    DCD    0
        0x00002214:    002176c2    .v!.    DCD    2193090
        0x00002218:    42c9cccd    ...B    DCD    1120521421
        0x0000221c:    68432020      Ch    DCD    1749229600
        0x00002220:    656e6e61    anne    DCD    1701736033
        0x00002224:    31203a6c    l: 1    DCD    824195692
        0x00002228:    392e3030    00.9    DCD    959328304
        0x0000222c:    7a484d20     MHz    DCD    2051558688
        0x00002230:    00000020     ...    DCD    32
        0x00002234:    00226a42    Bj".    DCD    2255426
        0x00002238:    000006a4    ....    DCD    1700
        0x0000223c:    42cf6666    ff.B    DCD    1120888422
        0x00002240:    68432020      Ch    DCD    1749229600
        0x00002244:    656e6e61    anne    DCD    1701736033
        0x00002248:    31203a6c    l: 1    DCD    824195692
        0x0000224c:    372e3330    03.7    DCD    925774640
        0x00002250:    7a484d20     MHz    DCD    2051558688
        0x00002254:    00000020     ...    DCD    32
        0x00002258:    00222bc2    .+".    DCD    2239426
        0x0000225c:    42cd6666    ff.B    DCD    1120757350
        0x00002260:    68432020      Ch    DCD    1749229600
        0x00002264:    656e6e61    anne    DCD    1701736033
        0x00002268:    31203a6c    l: 1    DCD    824195692
        0x0000226c:    372e3230    02.7    DCD    925774384
        0x00002270:    7a484d20     MHz    DCD    2051558688
        0x00002274:    00000020     ...    DCD    32
        0x00002278:    00235dc2    .]#.    DCD    2317762
        0x0000227c:    42d50000    ...B    DCD    1121255424
        0x00002280:    68432020      Ch    DCD    1749229600
        0x00002284:    656e6e61    anne    DCD    1701736033
        0x00002288:    31203a6c    l: 1    DCD    824195692
        0x0000228c:    352e3630    06.5    DCD    892220976
        0x00002290:    7a484d20     MHz    DCD    2051558688
        0x00002294:    00000020     ...    DCD    32
        0x00002298:    00238982    ..#.    DCD    2328962
        0x0000229c:    42d66666    ff.B    DCD    1121347174
        0x000022a0:    68432020      Ch    DCD    1749229600
        0x000022a4:    656e6e61    anne    DCD    1701736033
        0x000022a8:    31203a6c    l: 1    DCD    824195692
        0x000022ac:    322e3730    07.2    DCD    841889584
        0x000022b0:    7a484d20     MHz    DCD    2051558688
        0x000022b4:    00000020     ...    DCD    32
        0x000022b8:    0023a8c2    ..#.    DCD    2336962
        0x000022bc:    42d76666    ff.B    DCD    1121412710
        0x000022c0:    68432020      Ch    DCD    1749229600
        0x000022c4:    656e6e61    anne    DCD    1701736033
        0x000022c8:    31203a6c    l: 1    DCD    824195692
        0x000022cc:    372e3730    07.7    DCD    925775664
        0x000022d0:    7a484d20     MHz    DCD    2051558688
        0x000022d4:    00000020     ...    DCD    32
        0x000022d8:    72572020      Wr    DCD    1918312480
        0x000022dc:    20676e6f    ong     DCD    543649391
        0x000022e0:    6d6d6f63    comm    DCD    1835888483
        0x000022e4:    21646e61    and!    DCD    560229985
        0x000022e8:    00202020       .    DCD    2105376
    $t
    i.Channel_control
    Channel_control
        0x000022ec:    b57f        ..      PUSH     {r0-r6,lr}
        0x000022ee:    9c00        ..      LDR      r4,[sp,#0]
        0x000022f0:    4919        .I      LDR      r1,[pc,#100] ; [0x2358] = 0x41200000
        0x000022f2:    9801        ..      LDR      r0,[sp,#4]
        0x000022f4:    f000fe3c    ..<.    BL       __aeabi_fmul ; 0x2f70
        0x000022f8:    4606        .F      MOV      r6,r0
        0x000022fa:    f7fefb97    ....    BL       __aeabi_f2uiz ; 0xa2c
        0x000022fe:    4605        .F      MOV      r5,r0
        0x00002300:    210a        .!      MOVS     r1,#0xa
        0x00002302:    4628        (F      MOV      r0,r5
        0x00002304:    f7fdff9e    ....    BL       __aeabi_uidiv ; 0x244
        0x00002308:    0148        H.      LSLS     r0,r1,#5
        0x0000230a:    1904        ..      ADDS     r4,r0,r4
        0x0000230c:    210a        .!      MOVS     r1,#0xa
        0x0000230e:    4628        (F      MOV      r0,r5
        0x00002310:    f7fdff98    ....    BL       __aeabi_uidiv ; 0x244
        0x00002314:    4605        .F      MOV      r5,r0
        0x00002316:    210a        .!      MOVS     r1,#0xa
        0x00002318:    4628        (F      MOV      r0,r5
        0x0000231a:    f7fdff93    ....    BL       __aeabi_uidiv ; 0x244
        0x0000231e:    0248        H.      LSLS     r0,r1,#9
        0x00002320:    1904        ..      ADDS     r4,r0,r4
        0x00002322:    210a        .!      MOVS     r1,#0xa
        0x00002324:    4628        (F      MOV      r0,r5
        0x00002326:    f7fdff8d    ....    BL       __aeabi_uidiv ; 0x244
        0x0000232a:    4605        .F      MOV      r5,r0
        0x0000232c:    210a        .!      MOVS     r1,#0xa
        0x0000232e:    4628        (F      MOV      r0,r5
        0x00002330:    f7fdff88    ....    BL       __aeabi_uidiv ; 0x244
        0x00002334:    0348        H.      LSLS     r0,r1,#13
        0x00002336:    1904        ..      ADDS     r4,r0,r4
        0x00002338:    210a        .!      MOVS     r1,#0xa
        0x0000233a:    4628        (F      MOV      r0,r5
        0x0000233c:    f7fdff82    ....    BL       __aeabi_uidiv ; 0x244
        0x00002340:    4605        .F      MOV      r5,r0
        0x00002342:    210a        .!      MOVS     r1,#0xa
        0x00002344:    4628        (F      MOV      r0,r5
        0x00002346:    f7fdff7d    ..}.    BL       __aeabi_uidiv ; 0x244
        0x0000234a:    0448        H.      LSLS     r0,r1,#17
        0x0000234c:    1904        ..      ADDS     r4,r0,r4
        0x0000234e:    2003        .       MOVS     r0,#3
        0x00002350:    0740        @.      LSLS     r0,r0,#29
        0x00002352:    6204        .b      STR      r4,[r0,#0x20]
        0x00002354:    bd7f        ..      POP      {r0-r6,pc}
    $d
        0x00002356:    0000        ..      DCW    0
        0x00002358:    41200000    .. A    DCD    1092616192
    $t
    i.Delay
    Delay
        0x0000235c:    2100        .!      MOVS     r1,#0
        0x0000235e:    e003        ..      B        0x2368 ; Delay + 12
        0x00002360:    1c49        I.      ADDS     r1,r1,#1
        0x00002362:    4281        .B      CMP      r1,r0
        0x00002364:    d100        ..      BNE      0x2368 ; Delay + 12
        0x00002366:    e000        ..      B        0x236a ; Delay + 14
        0x00002368:    e7fa        ..      B        0x2360 ; Delay + 4
        0x0000236a:    bf00        ..      NOP      
        0x0000236c:    4770        pG      BX       lr
    i.Demodulated_Data_Dump_command
    Demodulated_Data_Dump_command
        0x0000236e:    2040        @       MOVS     r0,#0x40
        0x00002370:    2103        .!      MOVS     r1,#3
        0x00002372:    0749        I.      LSLS     r1,r1,#29
        0x00002374:    6108        .a      STR      r0,[r1,#0x10]
        0x00002376:    4770        pG      BX       lr
    i.IQ_Dump_command
    IQ_Dump_command
        0x00002378:    2001        .       MOVS     r0,#1
        0x0000237a:    2103        .!      MOVS     r1,#3
        0x0000237c:    0749        I.      LSLS     r1,r1,#29
        0x0000237e:    6108        .a      STR      r0,[r1,#0x10]
        0x00002380:    4770        pG      BX       lr
        0x00002382:    0000        ..      MOVS     r0,r0
    i.KEY0
    KEY0
        0x00002384:    b510        ..      PUSH     {r4,lr}
        0x00002386:    a006        ..      ADR      r0,{pc}+0x1a ; 0x23a0
        0x00002388:    f000fbc8    ....    BL       UARTString ; 0x2b1c
        0x0000238c:    4907        .I      LDR      r1,[pc,#28] ; [0x23ac] = 0x20002154
        0x0000238e:    6848        Hh      LDR      r0,[r1,#4]
        0x00002390:    f000fcac    ....    BL       regWrite ; 0x2cec
        0x00002394:    4805        .H      LDR      r0,[pc,#20] ; [0x23ac] = 0x20002154
        0x00002396:    c80f        ..      LDM      r0,{r0-r3}
        0x00002398:    f7ffffa8    ....    BL       Channel_control ; 0x22ec
        0x0000239c:    bd10        ..      POP      {r4,pc}
    $d
        0x0000239e:    0000        ..      DCW    0
        0x000023a0:    6e616843    Chan    DCD    1851877443
        0x000023a4:    306c656e    nel0    DCD    812410222
        0x000023a8:    0000000a    ....    DCD    10
        0x000023ac:    20002154    T!.     DCD    536879444
    $t
    i.KEY1
    KEY1
        0x000023b0:    b510        ..      PUSH     {r4,lr}
        0x000023b2:    a006        ..      ADR      r0,{pc}+0x1a ; 0x23cc
        0x000023b4:    f000fbb2    ....    BL       UARTString ; 0x2b1c
        0x000023b8:    4907        .I      LDR      r1,[pc,#28] ; [0x23d8] = 0x20002154
        0x000023ba:    6948        Hi      LDR      r0,[r1,#0x14]
        0x000023bc:    f000fc96    ....    BL       regWrite ; 0x2cec
        0x000023c0:    4805        .H      LDR      r0,[pc,#20] ; [0x23d8] = 0x20002154
        0x000023c2:    3010        .0      ADDS     r0,r0,#0x10
        0x000023c4:    c80f        ..      LDM      r0,{r0-r3}
        0x000023c6:    f7ffff91    ....    BL       Channel_control ; 0x22ec
        0x000023ca:    bd10        ..      POP      {r4,pc}
    $d
        0x000023cc:    6e616843    Chan    DCD    1851877443
        0x000023d0:    316c656e    nel1    DCD    829187438
        0x000023d4:    0000000a    ....    DCD    10
        0x000023d8:    20002154    T!.     DCD    536879444
    $t
    i.KEY10
    KEY10
        0x000023dc:    b510        ..      PUSH     {r4,lr}
        0x000023de:    a007        ..      ADR      r0,{pc}+0x1e ; 0x23fc
        0x000023e0:    f000fb9c    ....    BL       UARTString ; 0x2b1c
        0x000023e4:    4908        .I      LDR      r1,[pc,#32] ; [0x2408] = 0x200021f4
        0x000023e6:    6848        Hh      LDR      r0,[r1,#4]
        0x000023e8:    f000fc80    ....    BL       regWrite ; 0x2cec
        0x000023ec:    4806        .H      LDR      r0,[pc,#24] ; [0x2408] = 0x200021f4
        0x000023ee:    3820         8      SUBS     r0,r0,#0x20
        0x000023f0:    3020         0      ADDS     r0,r0,#0x20
        0x000023f2:    c80f        ..      LDM      r0,{r0-r3}
        0x000023f4:    f7ffff7a    ..z.    BL       Channel_control ; 0x22ec
        0x000023f8:    bd10        ..      POP      {r4,pc}
    $d
        0x000023fa:    0000        ..      DCW    0
        0x000023fc:    6e616843    Chan    DCD    1851877443
        0x00002400:    316c656e    nel1    DCD    829187438
        0x00002404:    00000a30    0...    DCD    2608
        0x00002408:    200021f4    .!.     DCD    536879604
    $t
    i.KEY11
    KEY11
        0x0000240c:    b510        ..      PUSH     {r4,lr}
        0x0000240e:    a007        ..      ADR      r0,{pc}+0x1e ; 0x242c
        0x00002410:    f000fb84    ....    BL       UARTString ; 0x2b1c
        0x00002414:    4908        .I      LDR      r1,[pc,#32] ; [0x2438] = 0x20002204
        0x00002416:    6848        Hh      LDR      r0,[r1,#4]
        0x00002418:    f000fc68    ..h.    BL       regWrite ; 0x2cec
        0x0000241c:    4806        .H      LDR      r0,[pc,#24] ; [0x2438] = 0x20002204
        0x0000241e:    3830        08      SUBS     r0,r0,#0x30
        0x00002420:    3030        00      ADDS     r0,r0,#0x30
        0x00002422:    c80f        ..      LDM      r0,{r0-r3}
        0x00002424:    f7ffff62    ..b.    BL       Channel_control ; 0x22ec
        0x00002428:    bd10        ..      POP      {r4,pc}
    $d
        0x0000242a:    0000        ..      DCW    0
        0x0000242c:    6e616843    Chan    DCD    1851877443
        0x00002430:    316c656e    nel1    DCD    829187438
        0x00002434:    00000a31    1...    DCD    2609
        0x00002438:    20002204    .".     DCD    536879620
    $t
    i.KEY12
    KEY12
        0x0000243c:    b510        ..      PUSH     {r4,lr}
        0x0000243e:    a007        ..      ADR      r0,{pc}+0x1e ; 0x245c
        0x00002440:    f000fb6c    ..l.    BL       UARTString ; 0x2b1c
        0x00002444:    4908        .I      LDR      r1,[pc,#32] ; [0x2468] = 0x20002214
        0x00002446:    6848        Hh      LDR      r0,[r1,#4]
        0x00002448:    f000fc50    ..P.    BL       regWrite ; 0x2cec
        0x0000244c:    4806        .H      LDR      r0,[pc,#24] ; [0x2468] = 0x20002214
        0x0000244e:    3840        @8      SUBS     r0,r0,#0x40
        0x00002450:    3040        @0      ADDS     r0,r0,#0x40
        0x00002452:    c80f        ..      LDM      r0,{r0-r3}
        0x00002454:    f7ffff4a    ..J.    BL       Channel_control ; 0x22ec
        0x00002458:    bd10        ..      POP      {r4,pc}
    $d
        0x0000245a:    0000        ..      DCW    0
        0x0000245c:    6e616843    Chan    DCD    1851877443
        0x00002460:    316c656e    nel1    DCD    829187438
        0x00002464:    00000a32    2...    DCD    2610
        0x00002468:    20002214    .".     DCD    536879636
    $t
    i.KEY13
    KEY13
        0x0000246c:    b510        ..      PUSH     {r4,lr}
        0x0000246e:    a007        ..      ADR      r0,{pc}+0x1e ; 0x248c
        0x00002470:    f000fb54    ..T.    BL       UARTString ; 0x2b1c
        0x00002474:    4908        .I      LDR      r1,[pc,#32] ; [0x2498] = 0x20002224
        0x00002476:    6848        Hh      LDR      r0,[r1,#4]
        0x00002478:    f000fc38    ..8.    BL       regWrite ; 0x2cec
        0x0000247c:    4806        .H      LDR      r0,[pc,#24] ; [0x2498] = 0x20002224
        0x0000247e:    3850        P8      SUBS     r0,r0,#0x50
        0x00002480:    3050        P0      ADDS     r0,r0,#0x50
        0x00002482:    c80f        ..      LDM      r0,{r0-r3}
        0x00002484:    f7ffff32    ..2.    BL       Channel_control ; 0x22ec
        0x00002488:    bd10        ..      POP      {r4,pc}
    $d
        0x0000248a:    0000        ..      DCW    0
        0x0000248c:    6e616843    Chan    DCD    1851877443
        0x00002490:    316c656e    nel1    DCD    829187438
        0x00002494:    00000a33    3...    DCD    2611
        0x00002498:    20002224    $".     DCD    536879652
    $t
    i.KEY14
    KEY14
        0x0000249c:    b510        ..      PUSH     {r4,lr}
        0x0000249e:    a007        ..      ADR      r0,{pc}+0x1e ; 0x24bc
        0x000024a0:    f000fb3c    ..<.    BL       UARTString ; 0x2b1c
        0x000024a4:    4908        .I      LDR      r1,[pc,#32] ; [0x24c8] = 0x20002234
        0x000024a6:    6848        Hh      LDR      r0,[r1,#4]
        0x000024a8:    f000fc20    .. .    BL       regWrite ; 0x2cec
        0x000024ac:    4806        .H      LDR      r0,[pc,#24] ; [0x24c8] = 0x20002234
        0x000024ae:    3860        `8      SUBS     r0,r0,#0x60
        0x000024b0:    3060        `0      ADDS     r0,r0,#0x60
        0x000024b2:    c80f        ..      LDM      r0,{r0-r3}
        0x000024b4:    f7ffff1a    ....    BL       Channel_control ; 0x22ec
        0x000024b8:    bd10        ..      POP      {r4,pc}
    $d
        0x000024ba:    0000        ..      DCW    0
        0x000024bc:    6e616843    Chan    DCD    1851877443
        0x000024c0:    316c656e    nel1    DCD    829187438
        0x000024c4:    00000a34    4...    DCD    2612
        0x000024c8:    20002234    4".     DCD    536879668
    $t
    i.KEY15
    KEY15
        0x000024cc:    b510        ..      PUSH     {r4,lr}
        0x000024ce:    a007        ..      ADR      r0,{pc}+0x1e ; 0x24ec
        0x000024d0:    f000fb24    ..$.    BL       UARTString ; 0x2b1c
        0x000024d4:    4908        .I      LDR      r1,[pc,#32] ; [0x24f8] = 0x20002244
        0x000024d6:    6848        Hh      LDR      r0,[r1,#4]
        0x000024d8:    f000fc08    ....    BL       regWrite ; 0x2cec
        0x000024dc:    4806        .H      LDR      r0,[pc,#24] ; [0x24f8] = 0x20002244
        0x000024de:    3870        p8      SUBS     r0,r0,#0x70
        0x000024e0:    3070        p0      ADDS     r0,r0,#0x70
        0x000024e2:    c80f        ..      LDM      r0,{r0-r3}
        0x000024e4:    f7ffff02    ....    BL       Channel_control ; 0x22ec
        0x000024e8:    bd10        ..      POP      {r4,pc}
    $d
        0x000024ea:    0000        ..      DCW    0
        0x000024ec:    6e616843    Chan    DCD    1851877443
        0x000024f0:    316c656e    nel1    DCD    829187438
        0x000024f4:    00000a35    5...    DCD    2613
        0x000024f8:    20002244    D".     DCD    536879684
    $t
    i.KEY2
    KEY2
        0x000024fc:    b510        ..      PUSH     {r4,lr}
        0x000024fe:    a006        ..      ADR      r0,{pc}+0x1a ; 0x2518
        0x00002500:    f000fb0c    ....    BL       UARTString ; 0x2b1c
        0x00002504:    4907        .I      LDR      r1,[pc,#28] ; [0x2524] = 0x20002154
        0x00002506:    6a48        Hj      LDR      r0,[r1,#0x24]
        0x00002508:    f000fbf0    ....    BL       regWrite ; 0x2cec
        0x0000250c:    4805        .H      LDR      r0,[pc,#20] ; [0x2524] = 0x20002154
        0x0000250e:    3020         0      ADDS     r0,r0,#0x20
        0x00002510:    c80f        ..      LDM      r0,{r0-r3}
        0x00002512:    f7fffeeb    ....    BL       Channel_control ; 0x22ec
        0x00002516:    bd10        ..      POP      {r4,pc}
    $d
        0x00002518:    6e616843    Chan    DCD    1851877443
        0x0000251c:    326c656e    nel2    DCD    845964654
        0x00002520:    0000000a    ....    DCD    10
        0x00002524:    20002154    T!.     DCD    536879444
    $t
    i.KEY3
    KEY3
        0x00002528:    b510        ..      PUSH     {r4,lr}
        0x0000252a:    a006        ..      ADR      r0,{pc}+0x1a ; 0x2544
        0x0000252c:    f000faf6    ....    BL       UARTString ; 0x2b1c
        0x00002530:    4907        .I      LDR      r1,[pc,#28] ; [0x2550] = 0x20002154
        0x00002532:    6b48        Hk      LDR      r0,[r1,#0x34]
        0x00002534:    f000fbda    ....    BL       regWrite ; 0x2cec
        0x00002538:    4805        .H      LDR      r0,[pc,#20] ; [0x2550] = 0x20002154
        0x0000253a:    3030        00      ADDS     r0,r0,#0x30
        0x0000253c:    c80f        ..      LDM      r0,{r0-r3}
        0x0000253e:    f7fffed5    ....    BL       Channel_control ; 0x22ec
        0x00002542:    bd10        ..      POP      {r4,pc}
    $d
        0x00002544:    6e616843    Chan    DCD    1851877443
        0x00002548:    336c656e    nel3    DCD    862741870
        0x0000254c:    0000000a    ....    DCD    10
        0x00002550:    20002154    T!.     DCD    536879444
    $t
    i.KEY4
    KEY4
        0x00002554:    b510        ..      PUSH     {r4,lr}
        0x00002556:    a006        ..      ADR      r0,{pc}+0x1a ; 0x2570
        0x00002558:    f000fae0    ....    BL       UARTString ; 0x2b1c
        0x0000255c:    4907        .I      LDR      r1,[pc,#28] ; [0x257c] = 0x20002154
        0x0000255e:    6c48        Hl      LDR      r0,[r1,#0x44]
        0x00002560:    f000fbc4    ....    BL       regWrite ; 0x2cec
        0x00002564:    4805        .H      LDR      r0,[pc,#20] ; [0x257c] = 0x20002154
        0x00002566:    3040        @0      ADDS     r0,r0,#0x40
        0x00002568:    c80f        ..      LDM      r0,{r0-r3}
        0x0000256a:    f7fffebf    ....    BL       Channel_control ; 0x22ec
        0x0000256e:    bd10        ..      POP      {r4,pc}
    $d
        0x00002570:    6e616843    Chan    DCD    1851877443
        0x00002574:    346c656e    nel4    DCD    879519086
        0x00002578:    0000000a    ....    DCD    10
        0x0000257c:    20002154    T!.     DCD    536879444
    $t
    i.KEY5
    KEY5
        0x00002580:    b510        ..      PUSH     {r4,lr}
        0x00002582:    a006        ..      ADR      r0,{pc}+0x1a ; 0x259c
        0x00002584:    f000faca    ....    BL       UARTString ; 0x2b1c
        0x00002588:    4907        .I      LDR      r1,[pc,#28] ; [0x25a8] = 0x20002154
        0x0000258a:    6d48        Hm      LDR      r0,[r1,#0x54]
        0x0000258c:    f000fbae    ....    BL       regWrite ; 0x2cec
        0x00002590:    4805        .H      LDR      r0,[pc,#20] ; [0x25a8] = 0x20002154
        0x00002592:    3050        P0      ADDS     r0,r0,#0x50
        0x00002594:    c80f        ..      LDM      r0,{r0-r3}
        0x00002596:    f7fffea9    ....    BL       Channel_control ; 0x22ec
        0x0000259a:    bd10        ..      POP      {r4,pc}
    $d
        0x0000259c:    6e616843    Chan    DCD    1851877443
        0x000025a0:    356c656e    nel5    DCD    896296302
        0x000025a4:    0000000a    ....    DCD    10
        0x000025a8:    20002154    T!.     DCD    536879444
    $t
    i.KEY6
    KEY6
        0x000025ac:    b510        ..      PUSH     {r4,lr}
        0x000025ae:    a006        ..      ADR      r0,{pc}+0x1a ; 0x25c8
        0x000025b0:    f000fab4    ....    BL       UARTString ; 0x2b1c
        0x000025b4:    4907        .I      LDR      r1,[pc,#28] ; [0x25d4] = 0x20002154
        0x000025b6:    6e48        Hn      LDR      r0,[r1,#0x64]
        0x000025b8:    f000fb98    ....    BL       regWrite ; 0x2cec
        0x000025bc:    4805        .H      LDR      r0,[pc,#20] ; [0x25d4] = 0x20002154
        0x000025be:    3060        `0      ADDS     r0,r0,#0x60
        0x000025c0:    c80f        ..      LDM      r0,{r0-r3}
        0x000025c2:    f7fffe93    ....    BL       Channel_control ; 0x22ec
        0x000025c6:    bd10        ..      POP      {r4,pc}
    $d
        0x000025c8:    6e616843    Chan    DCD    1851877443
        0x000025cc:    366c656e    nel6    DCD    913073518
        0x000025d0:    0000000a    ....    DCD    10
        0x000025d4:    20002154    T!.     DCD    536879444
    $t
    i.KEY7
    KEY7
        0x000025d8:    b510        ..      PUSH     {r4,lr}
        0x000025da:    a006        ..      ADR      r0,{pc}+0x1a ; 0x25f4
        0x000025dc:    f000fa9e    ....    BL       UARTString ; 0x2b1c
        0x000025e0:    4907        .I      LDR      r1,[pc,#28] ; [0x2600] = 0x20002154
        0x000025e2:    6f48        Ho      LDR      r0,[r1,#0x74]
        0x000025e4:    f000fb82    ....    BL       regWrite ; 0x2cec
        0x000025e8:    4805        .H      LDR      r0,[pc,#20] ; [0x2600] = 0x20002154
        0x000025ea:    3070        p0      ADDS     r0,r0,#0x70
        0x000025ec:    c80f        ..      LDM      r0,{r0-r3}
        0x000025ee:    f7fffe7d    ..}.    BL       Channel_control ; 0x22ec
        0x000025f2:    bd10        ..      POP      {r4,pc}
    $d
        0x000025f4:    6e616843    Chan    DCD    1851877443
        0x000025f8:    376c656e    nel7    DCD    929850734
        0x000025fc:    0000000a    ....    DCD    10
        0x00002600:    20002154    T!.     DCD    536879444
    $t
    i.KEY8
    KEY8
        0x00002604:    b510        ..      PUSH     {r4,lr}
        0x00002606:    a006        ..      ADR      r0,{pc}+0x1a ; 0x2620
        0x00002608:    f000fa88    ....    BL       UARTString ; 0x2b1c
        0x0000260c:    4907        .I      LDR      r1,[pc,#28] ; [0x262c] = 0x200021d4
        0x0000260e:    6848        Hh      LDR      r0,[r1,#4]
        0x00002610:    f000fb6c    ..l.    BL       regWrite ; 0x2cec
        0x00002614:    4805        .H      LDR      r0,[pc,#20] ; [0x262c] = 0x200021d4
        0x00002616:    c80f        ..      LDM      r0,{r0-r3}
        0x00002618:    f7fffe68    ..h.    BL       Channel_control ; 0x22ec
        0x0000261c:    bd10        ..      POP      {r4,pc}
    $d
        0x0000261e:    0000        ..      DCW    0
        0x00002620:    6e616843    Chan    DCD    1851877443
        0x00002624:    386c656e    nel8    DCD    946627950
        0x00002628:    0000000a    ....    DCD    10
        0x0000262c:    200021d4    .!.     DCD    536879572
    $t
    i.KEY9
    KEY9
        0x00002630:    b510        ..      PUSH     {r4,lr}
        0x00002632:    a007        ..      ADR      r0,{pc}+0x1e ; 0x2650
        0x00002634:    f000fa72    ..r.    BL       UARTString ; 0x2b1c
        0x00002638:    4908        .I      LDR      r1,[pc,#32] ; [0x265c] = 0x200021e4
        0x0000263a:    6848        Hh      LDR      r0,[r1,#4]
        0x0000263c:    f000fb56    ..V.    BL       regWrite ; 0x2cec
        0x00002640:    4806        .H      LDR      r0,[pc,#24] ; [0x265c] = 0x200021e4
        0x00002642:    3810        .8      SUBS     r0,r0,#0x10
        0x00002644:    3010        .0      ADDS     r0,r0,#0x10
        0x00002646:    c80f        ..      LDM      r0,{r0-r3}
        0x00002648:    f7fffe50    ..P.    BL       Channel_control ; 0x22ec
        0x0000264c:    bd10        ..      POP      {r4,pc}
    $d
        0x0000264e:    0000        ..      DCW    0
        0x00002650:    6e616843    Chan    DCD    1851877443
        0x00002654:    396c656e    nel9    DCD    963405166
        0x00002658:    0000000a    ....    DCD    10
        0x0000265c:    200021e4    .!.     DCD    536879588
    $t
    i.RSSIScanHandler
    RSSIScanHandler
        0x00002660:    b5f8        ..      PUSH     {r3-r7,lr}
        0x00002662:    f000f999    ....    BL       RSSI_read ; 0x2998
        0x00002666:    491c        .I      LDR      r1,[pc,#112] ; [0x26d8] = 0x20000004
        0x00002668:    6809        .h      LDR      r1,[r1,#0]
        0x0000266a:    00c9        ..      LSLS     r1,r1,#3
        0x0000266c:    4a1b        .J      LDR      r2,[pc,#108] ; [0x26dc] = 0x20000034
        0x0000266e:    1889        ..      ADDS     r1,r1,r2
        0x00002670:    6048        H`      STR      r0,[r1,#4]
        0x00002672:    f000f98b    ....    BL       RSSI_done ; 0x298c
        0x00002676:    4818        .H      LDR      r0,[pc,#96] ; [0x26d8] = 0x20000004
        0x00002678:    6800        .h      LDR      r0,[r0,#0]
        0x0000267a:    4917        .I      LDR      r1,[pc,#92] ; [0x26d8] = 0x20000004
        0x0000267c:    6809        .h      LDR      r1,[r1,#0]
        0x0000267e:    00c9        ..      LSLS     r1,r1,#3
        0x00002680:    4a16        .J      LDR      r2,[pc,#88] ; [0x26dc] = 0x20000034
        0x00002682:    5050        PP      STR      r0,[r2,r1]
        0x00002684:    4816        .H      LDR      r0,[pc,#88] ; [0x26e0] = 0x20000000
        0x00002686:    6800        .h      LDR      r0,[r0,#0]
        0x00002688:    f7fef8d0    ....    BL       __aeabi_f2d ; 0x82c
        0x0000268c:    4604        .F      MOV      r4,r0
        0x0000268e:    4a15        .J      LDR      r2,[pc,#84] ; [0x26e4] = 0x47ae147b
        0x00002690:    4b15        .K      LDR      r3,[pc,#84] ; [0x26e8] = 0x3f947ae1
        0x00002692:    f7fef841    ..A.    BL       __aeabi_dadd ; 0x718
        0x00002696:    4606        .F      MOV      r6,r0
        0x00002698:    f7fdfe84    ....    BL       __aeabi_d2f ; 0x3a4
        0x0000269c:    4910        .I      LDR      r1,[pc,#64] ; [0x26e0] = 0x20000000
        0x0000269e:    6008        .`      STR      r0,[r1,#0]
        0x000026a0:    480d        .H      LDR      r0,[pc,#52] ; [0x26d8] = 0x20000004
        0x000026a2:    6800        .h      LDR      r0,[r0,#0]
        0x000026a4:    1c40        @.      ADDS     r0,r0,#1
        0x000026a6:    490c        .I      LDR      r1,[pc,#48] ; [0x26d8] = 0x20000004
        0x000026a8:    6008        .`      STR      r0,[r1,#0]
        0x000026aa:    4910        .I      LDR      r1,[pc,#64] ; [0x26ec] = 0x42d80000
        0x000026ac:    480c        .H      LDR      r0,[pc,#48] ; [0x26e0] = 0x20000000
        0x000026ae:    6800        .h      LDR      r0,[r0,#0]
        0x000026b0:    f000fc34    ..4.    BL       __aeabi_cfcmple ; 0x2f1c
        0x000026b4:    d204        ..      BCS      0x26c0 ; RSSIScanHandler + 96
        0x000026b6:    f000fb4d    ..M.    BL       singleFrequencyRSSI ; 0x2d54
        0x000026ba:    f000f973    ..s.    BL       RSSI_scan_cmd ; 0x29a4
        0x000026be:    e00a        ..      B        0x26d6 ; RSSIScanHandler + 118
        0x000026c0:    480b        .H      LDR      r0,[pc,#44] ; [0x26f0] = 0x42ae0000
        0x000026c2:    4907        .I      LDR      r1,[pc,#28] ; [0x26e0] = 0x20000000
        0x000026c4:    6008        .`      STR      r0,[r1,#0]
        0x000026c6:    2000        .       MOVS     r0,#0
        0x000026c8:    4903        .I      LDR      r1,[pc,#12] ; [0x26d8] = 0x20000004
        0x000026ca:    6008        .`      STR      r0,[r1,#0]
        0x000026cc:    f000f818    ....    BL       RSSIScanscreen ; 0x2700
        0x000026d0:    a008        ..      ADR      r0,{pc}+0x24 ; 0x26f4
        0x000026d2:    f000fa23    ..#.    BL       UARTString ; 0x2b1c
        0x000026d6:    bdf8        ..      POP      {r3-r7,pc}
    $d
        0x000026d8:    20000004    ...     DCD    536870916
        0x000026dc:    20000034    4..     DCD    536870964
        0x000026e0:    20000000    ...     DCD    536870912
        0x000026e4:    47ae147b    {..G    DCD    1202590843
        0x000026e8:    3f947ae1    .z.?    DCD    1066695393
        0x000026ec:    42d80000    ...B    DCD    1121452032
        0x000026f0:    42ae0000    ...B    DCD    1118699520
        0x000026f4:    6e616353    Scan    DCD    1851876179
        0x000026f8:    6e6f6420     don    DCD    1852793888
        0x000026fc:    000a2165    e!..    DCD    663909
    $t
    i.RSSIScanscreen
    RSSIScanscreen
        0x00002700:    b5f0        ..      PUSH     {r4-r7,lr}
        0x00002702:    b099        ..      SUB      sp,sp,#0x64
        0x00002704:    4f96        .O      LDR      r7,[pc,#600] ; [0x2960] = 0x42ae0000
        0x00002706:    2400        .$      MOVS     r4,#0
        0x00002708:    2001        .       MOVS     r0,#1
        0x0000270a:    9017        ..      STR      r0,[sp,#0x5c]
        0x0000270c:    2500        .%      MOVS     r5,#0
        0x0000270e:    e0ab        ..      B        0x2868 ; RSSIScanscreen + 360
        0x00002710:    00e8        ..      LSLS     r0,r5,#3
        0x00002712:    4994        .I      LDR      r1,[pc,#592] ; [0x2964] = 0x20000034
        0x00002714:    1840        @.      ADDS     r0,r0,r1
        0x00002716:    6840        @h      LDR      r0,[r0,#4]
        0x00002718:    4993        .I      LDR      r1,[pc,#588] ; [0x2968] = 0x76c
        0x0000271a:    4288        .B      CMP      r0,r1
        0x0000271c:    da00        ..      BGE      0x2720 ; RSSIScanscreen + 32
        0x0000271e:    e0a2        ..      B        0x2866 ; RSSIScanscreen + 358
        0x00002720:    00e8        ..      LSLS     r0,r5,#3
        0x00002722:    4990        .I      LDR      r1,[pc,#576] ; [0x2964] = 0x20000034
        0x00002724:    1840        @.      ADDS     r0,r0,r1
        0x00002726:    6841        Ah      LDR      r1,[r0,#4]
        0x00002728:    4628        (F      MOV      r0,r5
        0x0000272a:    380c        .8      SUBS     r0,r0,#0xc
        0x0000272c:    00c0        ..      LSLS     r0,r0,#3
        0x0000272e:    4a8d        .J      LDR      r2,[pc,#564] ; [0x2964] = 0x20000034
        0x00002730:    1880        ..      ADDS     r0,r0,r2
        0x00002732:    6840        @h      LDR      r0,[r0,#4]
        0x00002734:    0080        ..      LSLS     r0,r0,#2
        0x00002736:    4281        .B      CMP      r1,r0
        0x00002738:    db7e        ~.      BLT      0x2838 ; RSSIScanscreen + 312
        0x0000273a:    00e8        ..      LSLS     r0,r5,#3
        0x0000273c:    4611        .F      MOV      r1,r2
        0x0000273e:    1840        @.      ADDS     r0,r0,r1
        0x00002740:    6841        Ah      LDR      r1,[r0,#4]
        0x00002742:    4628        (F      MOV      r0,r5
        0x00002744:    300c        .0      ADDS     r0,r0,#0xc
        0x00002746:    00c0        ..      LSLS     r0,r0,#3
        0x00002748:    1880        ..      ADDS     r0,r0,r2
        0x0000274a:    6840        @h      LDR      r0,[r0,#4]
        0x0000274c:    0080        ..      LSLS     r0,r0,#2
        0x0000274e:    4281        .B      CMP      r1,r0
        0x00002750:    dbf2        ..      BLT      0x2738 ; RSSIScanscreen + 56
        0x00002752:    2600        .&      MOVS     r6,#0
        0x00002754:    e031        1.      B        0x27ba ; RSSIScanscreen + 186
        0x00002756:    0130        0.      LSLS     r0,r6,#4
        0x00002758:    4a84        .J      LDR      r2,[pc,#528] ; [0x296c] = 0x20002154
        0x0000275a:    1880        ..      ADDS     r0,r0,r2
        0x0000275c:    6841        Ah      LDR      r1,[r0,#4]
        0x0000275e:    4638        8F      MOV      r0,r7
        0x00002760:    f000fc5e    ..^.    BL       __aeabi_fsub ; 0x3020
        0x00002764:    9003        ..      STR      r0,[sp,#0xc]
        0x00002766:    f7fef861    ..a.    BL       __aeabi_f2d ; 0x82c
        0x0000276a:    4a81        .J      LDR      r2,[pc,#516] ; [0x2970] = 0x9999999a
        0x0000276c:    4b81        .K      LDR      r3,[pc,#516] ; [0x2974] = 0x3fc99999
        0x0000276e:    9105        ..      STR      r1,[sp,#0x14]
        0x00002770:    9004        ..      STR      r0,[sp,#0x10]
        0x00002772:    f000fb27    ..'.    BL       __aeabi_cdcmple ; 0x2dc4
        0x00002776:    d21f        ..      BCS      0x27b8 ; RSSIScanscreen + 184
        0x00002778:    9817        ..      LDR      r0,[sp,#0x5c]
        0x0000277a:    1c40        @.      ADDS     r0,r0,#1
        0x0000277c:    f7fef992    ....    BL       __aeabi_i2f ; 0xaa4
        0x00002780:    9005        ..      STR      r0,[sp,#0x14]
        0x00002782:    9817        ..      LDR      r0,[sp,#0x5c]
        0x00002784:    f7fef98e    ....    BL       __aeabi_i2f ; 0xaa4
        0x00002788:    9002        ..      STR      r0,[sp,#8]
        0x0000278a:    0130        0.      LSLS     r0,r6,#4
        0x0000278c:    4a77        wJ      LDR      r2,[pc,#476] ; [0x296c] = 0x20002154
        0x0000278e:    1880        ..      ADDS     r0,r0,r2
        0x00002790:    6841        Ah      LDR      r1,[r0,#4]
        0x00002792:    9802        ..      LDR      r0,[sp,#8]
        0x00002794:    f000fbec    ....    BL       __aeabi_fmul ; 0x2f70
        0x00002798:    4639        9F      MOV      r1,r7
        0x0000279a:    9003        ..      STR      r0,[sp,#0xc]
        0x0000279c:    f000fb78    ..x.    BL       __aeabi_fadd ; 0x2e90
        0x000027a0:    9004        ..      STR      r0,[sp,#0x10]
        0x000027a2:    9905        ..      LDR      r1,[sp,#0x14]
        0x000027a4:    f7fef86c    ..l.    BL       __aeabi_fdiv ; 0x880
        0x000027a8:    0131        1.      LSLS     r1,r6,#4
        0x000027aa:    4a70        pJ      LDR      r2,[pc,#448] ; [0x296c] = 0x20002154
        0x000027ac:    1889        ..      ADDS     r1,r1,r2
        0x000027ae:    6048        H`      STR      r0,[r1,#4]
        0x000027b0:    9817        ..      LDR      r0,[sp,#0x5c]
        0x000027b2:    1c40        @.      ADDS     r0,r0,#1
        0x000027b4:    9017        ..      STR      r0,[sp,#0x5c]
        0x000027b6:    e004        ..      B        0x27c2 ; RSSIScanscreen + 194
        0x000027b8:    1c76        v.      ADDS     r6,r6,#1
        0x000027ba:    42a6        .B      CMP      r6,r4
        0x000027bc:    dc01        ..      BGT      0x27c2 ; RSSIScanscreen + 194
        0x000027be:    2e10        ..      CMP      r6,#0x10
        0x000027c0:    dbc9        ..      BLT      0x2756 ; RSSIScanscreen + 86
        0x000027c2:    bf00        ..      NOP      
        0x000027c4:    42a6        .B      CMP      r6,r4
        0x000027c6:    dc02        ..      BGT      0x27ce ; RSSIScanscreen + 206
        0x000027c8:    2e10        ..      CMP      r6,#0x10
        0x000027ca:    da00        ..      BGE      0x27ce ; RSSIScanscreen + 206
        0x000027cc:    e04b        K.      B        0x2866 ; RSSIScanscreen + 358
        0x000027ce:    2c00        .,      CMP      r4,#0
        0x000027d0:    d10c        ..      BNE      0x27ec ; RSSIScanscreen + 236
        0x000027d2:    0120         .      LSLS     r0,r4,#4
        0x000027d4:    4965        eI      LDR      r1,[pc,#404] ; [0x296c] = 0x20002154
        0x000027d6:    1840        @.      ADDS     r0,r0,r1
        0x000027d8:    6047        G`      STR      r7,[r0,#4]
        0x000027da:    00e8        ..      LSLS     r0,r5,#3
        0x000027dc:    4961        aI      LDR      r1,[pc,#388] ; [0x2964] = 0x20000034
        0x000027de:    1840        @.      ADDS     r0,r0,r1
        0x000027e0:    6840        @h      LDR      r0,[r0,#4]
        0x000027e2:    00a1        ..      LSLS     r1,r4,#2
        0x000027e4:    aa07        ..      ADD      r2,sp,#0x1c
        0x000027e6:    5050        PP      STR      r0,[r2,r1]
        0x000027e8:    1c64        d.      ADDS     r4,r4,#1
        0x000027ea:    e039        9.      B        0x2860 ; RSSIScanscreen + 352
        0x000027ec:    2c10        .,      CMP      r4,#0x10
        0x000027ee:    da24        $.      BGE      0x283a ; RSSIScanscreen + 314
        0x000027f0:    0120         .      LSLS     r0,r4,#4
        0x000027f2:    495e        ^I      LDR      r1,[pc,#376] ; [0x296c] = 0x20002154
        0x000027f4:    1840        @.      ADDS     r0,r0,r1
        0x000027f6:    6047        G`      STR      r7,[r0,#4]
        0x000027f8:    00e8        ..      LSLS     r0,r5,#3
        0x000027fa:    495a        ZI      LDR      r1,[pc,#360] ; [0x2964] = 0x20000034
        0x000027fc:    1840        @.      ADDS     r0,r0,r1
        0x000027fe:    6840        @h      LDR      r0,[r0,#4]
        0x00002800:    00a1        ..      LSLS     r1,r4,#2
        0x00002802:    aa07        ..      ADD      r2,sp,#0x1c
        0x00002804:    5050        PP      STR      r0,[r2,r1]
        0x00002806:    00e8        ..      LSLS     r0,r5,#3
        0x00002808:    4956        VI      LDR      r1,[pc,#344] ; [0x2964] = 0x20000034
        0x0000280a:    1840        @.      ADDS     r0,r0,r1
        0x0000280c:    6840        @h      LDR      r0,[r0,#4]
        0x0000280e:    9907        ..      LDR      r1,[sp,#0x1c]
        0x00002810:    4288        .B      CMP      r0,r1
        0x00002812:    da0f        ..      BGE      0x2834 ; RSSIScanscreen + 308
        0x00002814:    00a1        ..      LSLS     r1,r4,#2
        0x00002816:    9807        ..      LDR      r0,[sp,#0x1c]
        0x00002818:    5050        PP      STR      r0,[r2,r1]
        0x0000281a:    00e8        ..      LSLS     r0,r5,#3
        0x0000281c:    4951        QI      LDR      r1,[pc,#324] ; [0x2964] = 0x20000034
        0x0000281e:    1840        @.      ADDS     r0,r0,r1
        0x00002820:    6840        @h      LDR      r0,[r0,#4]
        0x00002822:    9007        ..      STR      r0,[sp,#0x1c]
        0x00002824:    4851        QH      LDR      r0,[pc,#324] ; [0x296c] = 0x20002154
        0x00002826:    6840        @h      LDR      r0,[r0,#4]
        0x00002828:    0121        !.      LSLS     r1,r4,#4
        0x0000282a:    4a50        PJ      LDR      r2,[pc,#320] ; [0x296c] = 0x20002154
        0x0000282c:    1889        ..      ADDS     r1,r1,r2
        0x0000282e:    6048        H`      STR      r0,[r1,#4]
        0x00002830:    4610        .F      MOV      r0,r2
        0x00002832:    6047        G`      STR      r7,[r0,#4]
        0x00002834:    1c64        d.      ADDS     r4,r4,#1
        0x00002836:    e013        ..      B        0x2860 ; RSSIScanscreen + 352
        0x00002838:    e014        ..      B        0x2864 ; RSSIScanscreen + 356
        0x0000283a:    00e8        ..      LSLS     r0,r5,#3
        0x0000283c:    4949        II      LDR      r1,[pc,#292] ; [0x2964] = 0x20000034
        0x0000283e:    1840        @.      ADDS     r0,r0,r1
        0x00002840:    6840        @h      LDR      r0,[r0,#4]
        0x00002842:    9907        ..      LDR      r1,[sp,#0x1c]
        0x00002844:    4288        .B      CMP      r0,r1
        0x00002846:    dd0a        ..      BLE      0x285e ; RSSIScanscreen + 350
        0x00002848:    00e8        ..      LSLS     r0,r5,#3
        0x0000284a:    4946        FI      LDR      r1,[pc,#280] ; [0x2964] = 0x20000034
        0x0000284c:    1840        @.      ADDS     r0,r0,r1
        0x0000284e:    6840        @h      LDR      r0,[r0,#4]
        0x00002850:    9007        ..      STR      r0,[sp,#0x1c]
        0x00002852:    4846        FH      LDR      r0,[pc,#280] ; [0x296c] = 0x20002154
        0x00002854:    6047        G`      STR      r7,[r0,#4]
        0x00002856:    a807        ..      ADD      r0,sp,#0x1c
        0x00002858:    f7fefa36    ..6.    BL       Bubbling ; 0xcc8
        0x0000285c:    e000        ..      B        0x2860 ; RSSIScanscreen + 352
        0x0000285e:    e002        ..      B        0x2866 ; RSSIScanscreen + 358
        0x00002860:    2001        .       MOVS     r0,#1
        0x00002862:    9017        ..      STR      r0,[sp,#0x5c]
        0x00002864:    bf00        ..      NOP      
        0x00002866:    1c6d        m.      ADDS     r5,r5,#1
        0x00002868:    4638        8F      MOV      r0,r7
        0x0000286a:    f7fdffdf    ....    BL       __aeabi_f2d ; 0x82c
        0x0000286e:    4a42        BJ      LDR      r2,[pc,#264] ; [0x2978] = 0x47ae147b
        0x00002870:    4b42        BK      LDR      r3,[pc,#264] ; [0x297c] = 0x3f947ae1
        0x00002872:    9103        ..      STR      r1,[sp,#0xc]
        0x00002874:    9002        ..      STR      r0,[sp,#8]
        0x00002876:    f7fdff4f    ..O.    BL       __aeabi_dadd ; 0x718
        0x0000287a:    9105        ..      STR      r1,[sp,#0x14]
        0x0000287c:    9004        ..      STR      r0,[sp,#0x10]
        0x0000287e:    f7fdfd91    ....    BL       __aeabi_d2f ; 0x3a4
        0x00002882:    4607        .F      MOV      r7,r0
        0x00002884:    483e        >H      LDR      r0,[pc,#248] ; [0x2980] = 0x41a
        0x00002886:    4285        .B      CMP      r5,r0
        0x00002888:    da01        ..      BGE      0x288e ; RSSIScanscreen + 398
        0x0000288a:    2001        .       MOVS     r0,#1
        0x0000288c:    e000        ..      B        0x2890 ; RSSIScanscreen + 400
        0x0000288e:    2000        .       MOVS     r0,#0
        0x00002890:    2800        .(      CMP      r0,#0
        0x00002892:    d000        ..      BEQ      0x2896 ; RSSIScanscreen + 406
        0x00002894:    e73c        <.      B        0x2710 ; RSSIScanscreen + 16
        0x00002896:    2400        .$      MOVS     r4,#0
        0x00002898:    e024        $.      B        0x28e4 ; RSSIScanscreen + 484
        0x0000289a:    2501        .%      MOVS     r5,#1
        0x0000289c:    e01d        ..      B        0x28da ; RSSIScanscreen + 474
        0x0000289e:    1e6a        j.      SUBS     r2,r5,#1
        0x000028a0:    0112        ..      LSLS     r2,r2,#4
        0x000028a2:    4b32        2K      LDR      r3,[pc,#200] ; [0x296c] = 0x20002154
        0x000028a4:    18d2        ..      ADDS     r2,r2,r3
        0x000028a6:    6851        Qh      LDR      r1,[r2,#4]
        0x000028a8:    012a        *.      LSLS     r2,r5,#4
        0x000028aa:    18d2        ..      ADDS     r2,r2,r3
        0x000028ac:    6850        Ph      LDR      r0,[r2,#4]
        0x000028ae:    f000fb35    ..5.    BL       __aeabi_cfcmple ; 0x2f1c
        0x000028b2:    d211        ..      BCS      0x28d8 ; RSSIScanscreen + 472
        0x000028b4:    0128        (.      LSLS     r0,r5,#4
        0x000028b6:    492d        -I      LDR      r1,[pc,#180] ; [0x296c] = 0x20002154
        0x000028b8:    1840        @.      ADDS     r0,r0,r1
        0x000028ba:    6840        @h      LDR      r0,[r0,#4]
        0x000028bc:    9006        ..      STR      r0,[sp,#0x18]
        0x000028be:    1e68        h.      SUBS     r0,r5,#1
        0x000028c0:    0100        ..      LSLS     r0,r0,#4
        0x000028c2:    1840        @.      ADDS     r0,r0,r1
        0x000028c4:    6840        @h      LDR      r0,[r0,#4]
        0x000028c6:    0129        ).      LSLS     r1,r5,#4
        0x000028c8:    4a28        (J      LDR      r2,[pc,#160] ; [0x296c] = 0x20002154
        0x000028ca:    1889        ..      ADDS     r1,r1,r2
        0x000028cc:    6048        H`      STR      r0,[r1,#4]
        0x000028ce:    1e69        i.      SUBS     r1,r5,#1
        0x000028d0:    0109        ..      LSLS     r1,r1,#4
        0x000028d2:    1889        ..      ADDS     r1,r1,r2
        0x000028d4:    9806        ..      LDR      r0,[sp,#0x18]
        0x000028d6:    6048        H`      STR      r0,[r1,#4]
        0x000028d8:    1c6d        m.      ADDS     r5,r5,#1
        0x000028da:    2010        .       MOVS     r0,#0x10
        0x000028dc:    1b00        ..      SUBS     r0,r0,r4
        0x000028de:    42a8        .B      CMP      r0,r5
        0x000028e0:    dcdd        ..      BGT      0x289e ; RSSIScanscreen + 414
        0x000028e2:    1c64        d.      ADDS     r4,r4,#1
        0x000028e4:    2c10        .,      CMP      r4,#0x10
        0x000028e6:    dbd8        ..      BLT      0x289a ; RSSIScanscreen + 410
        0x000028e8:    2400        .$      MOVS     r4,#0
        0x000028ea:    e035        5.      B        0x2958 ; RSSIScanscreen + 600
        0x000028ec:    0121        !.      LSLS     r1,r4,#4
        0x000028ee:    4a1f        .J      LDR      r2,[pc,#124] ; [0x296c] = 0x20002154
        0x000028f0:    1889        ..      ADDS     r1,r1,r2
        0x000028f2:    6848        Hh      LDR      r0,[r1,#4]
        0x000028f4:    4923        #I      LDR      r1,[pc,#140] ; [0x2984] = 0x40400000
        0x000028f6:    f7fdffc3    ....    BL       __aeabi_fdiv ; 0x880
        0x000028fa:    9001        ..      STR      r0,[sp,#4]
        0x000028fc:    f7fdff96    ....    BL       __aeabi_f2d ; 0x82c
        0x00002900:    9103        ..      STR      r1,[sp,#0xc]
        0x00002902:    9002        ..      STR      r0,[sp,#8]
        0x00002904:    f000f928    ..(.    BL       floor ; 0x2b58
        0x00002908:    9105        ..      STR      r1,[sp,#0x14]
        0x0000290a:    9004        ..      STR      r0,[sp,#0x10]
        0x0000290c:    f7fdff6a    ..j.    BL       __aeabi_d2uiz ; 0x7e4
        0x00002910:    0121        !.      LSLS     r1,r4,#4
        0x00002912:    4a16        .J      LDR      r2,[pc,#88] ; [0x296c] = 0x20002154
        0x00002914:    1889        ..      ADDS     r1,r1,r2
        0x00002916:    6088        .`      STR      r0,[r1,#8]
        0x00002918:    0121        !.      LSLS     r1,r4,#4
        0x0000291a:    1889        ..      ADDS     r1,r1,r2
        0x0000291c:    6888        .h      LDR      r0,[r1,#8]
        0x0000291e:    f7fef8c9    ....    BL       __aeabi_ui2f ; 0xab4
        0x00002922:    0121        !.      LSLS     r1,r4,#4
        0x00002924:    4a11        .J      LDR      r2,[pc,#68] ; [0x296c] = 0x20002154
        0x00002926:    1889        ..      ADDS     r1,r1,r2
        0x00002928:    9003        ..      STR      r0,[sp,#0xc]
        0x0000292a:    6848        Hh      LDR      r0,[r1,#4]
        0x0000292c:    4915        .I      LDR      r1,[pc,#84] ; [0x2984] = 0x40400000
        0x0000292e:    f7fdffa7    ....    BL       __aeabi_fdiv ; 0x880
        0x00002932:    9002        ..      STR      r0,[sp,#8]
        0x00002934:    9903        ..      LDR      r1,[sp,#0xc]
        0x00002936:    f000fb73    ..s.    BL       __aeabi_fsub ; 0x3020
        0x0000293a:    4913        .I      LDR      r1,[pc,#76] ; [0x2988] = 0x453b8000
        0x0000293c:    9004        ..      STR      r0,[sp,#0x10]
        0x0000293e:    f000fb17    ....    BL       __aeabi_fmul ; 0x2f70
        0x00002942:    9005        ..      STR      r0,[sp,#0x14]
        0x00002944:    f7fef872    ..r.    BL       __aeabi_f2uiz ; 0xa2c
        0x00002948:    0121        !.      LSLS     r1,r4,#4
        0x0000294a:    4a08        .J      LDR      r2,[pc,#32] ; [0x296c] = 0x20002154
        0x0000294c:    1889        ..      ADDS     r1,r1,r2
        0x0000294e:    60c8        .`      STR      r0,[r1,#0xc]
        0x00002950:    1c60        `.      ADDS     r0,r4,#1
        0x00002952:    0121        !.      LSLS     r1,r4,#4
        0x00002954:    5050        PP      STR      r0,[r2,r1]
        0x00002956:    1c64        d.      ADDS     r4,r4,#1
        0x00002958:    2c10        .,      CMP      r4,#0x10
        0x0000295a:    dbc7        ..      BLT      0x28ec ; RSSIScanscreen + 492
        0x0000295c:    b019        ..      ADD      sp,sp,#0x64
        0x0000295e:    bdf0        ..      POP      {r4-r7,pc}
    $d
        0x00002960:    42ae0000    ...B    DCD    1118699520
        0x00002964:    20000034    4..     DCD    536870964
        0x00002968:    0000076c    l...    DCD    1900
        0x0000296c:    20002154    T!.     DCD    536879444
        0x00002970:    9999999a    ....    DCD    2576980378
        0x00002974:    3fc99999    ...?    DCD    1070176665
        0x00002978:    47ae147b    {..G    DCD    1202590843
        0x0000297c:    3f947ae1    .z.?    DCD    1066695393
        0x00002980:    0000041a    ....    DCD    1050
        0x00002984:    40400000    ..@@    DCD    1077936128
        0x00002988:    453b8000    ..;E    DCD    1161527296
    $t
    i.RSSI_done
    RSSI_done
        0x0000298c:    2001        .       MOVS     r0,#1
        0x0000298e:    0240        @.      LSLS     r0,r0,#9
        0x00002990:    2103        .!      MOVS     r1,#3
        0x00002992:    0749        I.      LSLS     r1,r1,#29
        0x00002994:    6108        .a      STR      r0,[r1,#0x10]
        0x00002996:    4770        pG      BX       lr
    i.RSSI_read
    RSSI_read
        0x00002998:    4801        .H      LDR      r0,[pc,#4] ; [0x29a0] = 0x60000040
        0x0000299a:    6900        .i      LDR      r0,[r0,#0x10]
        0x0000299c:    4770        pG      BX       lr
    $d
        0x0000299e:    0000        ..      DCW    0
        0x000029a0:    60000040    @..`    DCD    1610612800
    $t
    i.RSSI_scan_cmd
    RSSI_scan_cmd
        0x000029a4:    20ff        .       MOVS     r0,#0xff
        0x000029a6:    3001        .0      ADDS     r0,#1
        0x000029a8:    2103        .!      MOVS     r1,#3
        0x000029aa:    0749        I.      LSLS     r1,r1,#29
        0x000029ac:    6108        .a      STR      r0,[r1,#0x10]
        0x000029ae:    4770        pG      BX       lr
    i.ReadUART
    ReadUART
        0x000029b0:    2101        .!      MOVS     r1,#1
        0x000029b2:    0789        ..      LSLS     r1,r1,#30
        0x000029b4:    6909        .i      LDR      r1,[r1,#0x10]
        0x000029b6:    b2c8        ..      UXTB     r0,r1
        0x000029b8:    4770        pG      BX       lr
    i.ReadUARTState
    ReadUARTState
        0x000029ba:    2101        .!      MOVS     r1,#1
        0x000029bc:    0789        ..      LSLS     r1,r1,#30
        0x000029be:    6949        Ii      LDR      r1,[r1,#0x14]
        0x000029c0:    b2c8        ..      UXTB     r0,r1
        0x000029c2:    4770        pG      BX       lr
    i.SPI_RFD
    SPI_RFD
        0x000029c4:    b501        ..      PUSH     {r0,lr}
        0x000029c6:    2105        .!      MOVS     r1,#5
        0x000029c8:    0709        ..      LSLS     r1,r1,#28
        0x000029ca:    9800        ..      LDR      r0,[sp,#0]
        0x000029cc:    6108        .a      STR      r0,[r1,#0x10]
        0x000029ce:    bd08        ..      POP      {r3,pc}
    i.SPIwrite
    SPIwrite
        0x000029d0:    b570        p.      PUSH     {r4-r6,lr}
        0x000029d2:    4604        .F      MOV      r4,r0
        0x000029d4:    460d        .F      MOV      r5,r1
        0x000029d6:    461e        .F      MOV      r6,r3
        0x000029d8:    480d        .H      LDR      r0,[pc,#52] ; [0x2a10] = 0x43420
        0x000029da:    f7fffff3    ....    BL       SPI_RFD ; 0x29c4
        0x000029de:    480d        .H      LDR      r0,[pc,#52] ; [0x2a14] = 0x28bb85
        0x000029e0:    f7fffff0    ....    BL       SPI_RFD ; 0x29c4
        0x000029e4:    0421        !.      LSLS     r1,r4,#16
        0x000029e6:    012b        +.      LSLS     r3,r5,#4
        0x000029e8:    18c9        ..      ADDS     r1,r1,r3
        0x000029ea:    1c88        ..      ADDS     r0,r1,#2
        0x000029ec:    f7ffffea    ....    BL       SPI_RFD ; 0x29c4
        0x000029f0:    0131        1.      LSLS     r1,r6,#4
        0x000029f2:    4b09        .K      LDR      r3,[pc,#36] ; [0x2a18] = 0x16001
        0x000029f4:    18c8        ..      ADDS     r0,r1,r3
        0x000029f6:    f7ffffe5    ....    BL       SPI_RFD ; 0x29c4
        0x000029fa:    4808        .H      LDR      r0,[pc,#32] ; [0x2a1c] = 0x200016
        0x000029fc:    f7ffffe2    ....    BL       SPI_RFD ; 0x29c4
        0x00002a00:    2004        .       MOVS     r0,#4
        0x00002a02:    f7ffffdf    ....    BL       SPI_RFD ; 0x29c4
        0x00002a06:    0111        ..      LSLS     r1,r2,#4
        0x00002a08:    1cc8        ..      ADDS     r0,r1,#3
        0x00002a0a:    f7ffffdb    ....    BL       SPI_RFD ; 0x29c4
        0x00002a0e:    bd70        p.      POP      {r4-r6,pc}
    $d
        0x00002a10:    00043420     4..    DCD    275488
        0x00002a14:    0028bb85    ..(.    DCD    2669445
        0x00002a18:    00016001    .`..    DCD    90113
        0x00002a1c:    00200016    .. .    DCD    2097174
    $t
    i.Start_FM_command
    Start_FM_command
        0x00002a20:    2010        .       MOVS     r0,#0x10
        0x00002a22:    2103        .!      MOVS     r1,#3
        0x00002a24:    0749        I.      LSLS     r1,r1,#29
        0x00002a26:    6108        .a      STR      r0,[r1,#0x10]
        0x00002a28:    4770        pG      BX       lr
    i.Stop_FM_command
    Stop_FM_command
        0x00002a2a:    2020                MOVS     r0,#0x20
        0x00002a2c:    2103        .!      MOVS     r1,#3
        0x00002a2e:    0749        I.      LSLS     r1,r1,#29
        0x00002a30:    6108        .a      STR      r0,[r1,#0x10]
        0x00002a32:    4770        pG      BX       lr
    i.UARTFM_Demodulated_Data_Dump_Done_Handler
    UARTFM_Demodulated_Data_Dump_Done_Handler
        0x00002a34:    b570        p.      PUSH     {r4-r6,lr}
        0x00002a36:    a00f        ..      ADR      r0,{pc}+0x3e ; 0x2a74
        0x00002a38:    f000f870    ..p.    BL       UARTString ; 0x2b1c
        0x00002a3c:    2080        .       MOVS     r0,#0x80
        0x00002a3e:    2103        .!      MOVS     r1,#3
        0x00002a40:    0749        I.      LSLS     r1,r1,#29
        0x00002a42:    6108        .a      STR      r0,[r1,#0x10]
        0x00002a44:    2400        .$      MOVS     r4,#0
        0x00002a46:    e00e        ..      B        0x2a66 ; UARTFM_Demodulated_Data_Dump_Done_Handler + 50
        0x00002a48:    00a0        ..      LSLS     r0,r4,#2
        0x00002a4a:    4912        .I      LDR      r1,[pc,#72] ; [0x2a94] = 0x60000400
        0x00002a4c:    1840        @.      ADDS     r0,r0,r1
        0x00002a4e:    6805        .h      LDR      r5,[r0,#0]
        0x00002a50:    4628        (F      MOV      r0,r5
        0x00002a52:    f000f8e5    ....    BL       int_to_str ; 0x2c20
        0x00002a56:    4606        .F      MOV      r6,r0
        0x00002a58:    4630        0F      MOV      r0,r6
        0x00002a5a:    f000f85f    .._.    BL       UARTString ; 0x2b1c
        0x00002a5e:    a00e        ..      ADR      r0,{pc}+0x3a ; 0x2a98
        0x00002a60:    f000f85c    ..\.    BL       UARTString ; 0x2b1c
        0x00002a64:    1c64        d.      ADDS     r4,r4,#1
        0x00002a66:    480d        .H      LDR      r0,[pc,#52] ; [0x2a9c] = 0x1eff
        0x00002a68:    4284        .B      CMP      r4,r0
        0x00002a6a:    d9ed        ..      BLS      0x2a48 ; UARTFM_Demodulated_Data_Dump_Done_Handler + 20
        0x00002a6c:    20c0        .       MOVS     r0,#0xc0
        0x00002a6e:    05c1        ..      LSLS     r1,r0,#23
        0x00002a70:    6108        .a      STR      r0,[r1,#0x10]
        0x00002a72:    bd70        p.      POP      {r4-r6,pc}
    $d
        0x00002a74:    72617453    Star    DCD    1918989395
        0x00002a78:    75642074    t du    DCD    1969496180
        0x00002a7c:    6420706d    mp d    DCD    1679847533
        0x00002a80:    646f6d65    emod    DCD    1685024101
        0x00002a84:    74616c75    ulat    DCD    1952541813
        0x00002a88:    44206465    ed D    DCD    1142973541
        0x00002a8c:    21617461    ata!    DCD    560034913
        0x00002a90:    00000a20     ...    DCD    2592
        0x00002a94:    60000400    ...`    DCD    1610613760
        0x00002a98:    0000000a    ....    DCD    10
        0x00002a9c:    00001eff    ....    DCD    7935
    $t
    i.UARTFM_IQ_Dump_Done_Handler
    UARTFM_IQ_Dump_Done_Handler
        0x00002aa0:    b570        p.      PUSH     {r4-r6,lr}
        0x00002aa2:    2000        .       MOVS     r0,#0
        0x00002aa4:    4910        .I      LDR      r1,[pc,#64] ; [0x2ae8] = 0xe000e180
        0x00002aa6:    6008        .`      STR      r0,[r1,#0]
        0x00002aa8:    a010        ..      ADR      r0,{pc}+0x44 ; 0x2aec
        0x00002aaa:    f000f837    ..7.    BL       UARTString ; 0x2b1c
        0x00002aae:    2002        .       MOVS     r0,#2
        0x00002ab0:    2103        .!      MOVS     r1,#3
        0x00002ab2:    0749        I.      LSLS     r1,r1,#29
        0x00002ab4:    6108        .a      STR      r0,[r1,#0x10]
        0x00002ab6:    2400        .$      MOVS     r4,#0
        0x00002ab8:    e00e        ..      B        0x2ad8 ; UARTFM_IQ_Dump_Done_Handler + 56
        0x00002aba:    00a0        ..      LSLS     r0,r4,#2
        0x00002abc:    4911        .I      LDR      r1,[pc,#68] ; [0x2b04] = 0x60000400
        0x00002abe:    1840        @.      ADDS     r0,r0,r1
        0x00002ac0:    6805        .h      LDR      r5,[r0,#0]
        0x00002ac2:    4628        (F      MOV      r0,r5
        0x00002ac4:    f000f8ac    ....    BL       int_to_str ; 0x2c20
        0x00002ac8:    4606        .F      MOV      r6,r0
        0x00002aca:    4630        0F      MOV      r0,r6
        0x00002acc:    f000f826    ..&.    BL       UARTString ; 0x2b1c
        0x00002ad0:    a00b        ..      ADR      r0,{pc}+0x30 ; 0x2b00
        0x00002ad2:    f000f823    ..#.    BL       UARTString ; 0x2b1c
        0x00002ad6:    1c64        d.      ADDS     r4,r4,#1
        0x00002ad8:    480b        .H      LDR      r0,[pc,#44] ; [0x2b08] = 0x1eff
        0x00002ada:    4284        .B      CMP      r4,r0
        0x00002adc:    d9ed        ..      BLS      0x2aba ; UARTFM_IQ_Dump_Done_Handler + 26
        0x00002ade:    2004        .       MOVS     r0,#4
        0x00002ae0:    2103        .!      MOVS     r1,#3
        0x00002ae2:    0749        I.      LSLS     r1,r1,#29
        0x00002ae4:    6108        .a      STR      r0,[r1,#0x10]
        0x00002ae6:    bd70        p.      POP      {r4-r6,pc}
    $d
        0x00002ae8:    e000e180    ....    DCD    3758154112
        0x00002aec:    72617453    Star    DCD    1918989395
        0x00002af0:    75642074    t du    DCD    1969496180
        0x00002af4:    4920706d    mp I    DCD    1226862701
        0x00002af8:    61442051    Q Da    DCD    1631854673
        0x00002afc:    20216174    ta!     DCD    539058548
        0x00002b00:    0000000a    ....    DCD    10
        0x00002b04:    60000400    ...`    DCD    1610613760
        0x00002b08:    00001eff    ....    DCD    7935
    $t
    i.UARTHandle
    UARTHandle
        0x00002b0c:    b510        ..      PUSH     {r4,lr}
        0x00002b0e:    f7ffff4f    ..O.    BL       ReadUART ; 0x29b0
        0x00002b12:    4604        .F      MOV      r4,r0
        0x00002b14:    4620         F      MOV      r0,r4
        0x00002b16:    f7fef90b    ....    BL       ChannelSelection_control ; 0xd30
        0x00002b1a:    bd10        ..      POP      {r4,pc}
    i.UARTString
    UARTString
        0x00002b1c:    b570        p.      PUSH     {r4-r6,lr}
        0x00002b1e:    4605        .F      MOV      r5,r0
        0x00002b20:    2400        .$      MOVS     r4,#0
        0x00002b22:    e007        ..      B        0x2b34 ; UARTString + 24
        0x00002b24:    207d        }       MOVS     r0,#0x7d
        0x00002b26:    00c0        ..      LSLS     r0,r0,#3
        0x00002b28:    f7fffc18    ....    BL       Delay ; 0x235c
        0x00002b2c:    5d28        (]      LDRB     r0,[r5,r4]
        0x00002b2e:    f000f807    ....    BL       WriteUART ; 0x2b40
        0x00002b32:    1c64        d.      ADDS     r4,r4,#1
        0x00002b34:    4628        (F      MOV      r0,r5
        0x00002b36:    f7fdfb63    ..c.    BL       strlen ; 0x200
        0x00002b3a:    42a0        .B      CMP      r0,r4
        0x00002b3c:    d8f2        ..      BHI      0x2b24 ; UARTString + 8
        0x00002b3e:    bd70        p.      POP      {r4-r6,pc}
    i.WriteUART
    WriteUART
        0x00002b40:    b500        ..      PUSH     {lr}
        0x00002b42:    4602        .F      MOV      r2,r0
        0x00002b44:    bf00        ..      NOP      
        0x00002b46:    f7ffff38    ..8.    BL       ReadUARTState ; 0x29ba
        0x00002b4a:    2800        .(      CMP      r0,#0
        0x00002b4c:    d1fb        ..      BNE      0x2b46 ; WriteUART + 6
        0x00002b4e:    2001        .       MOVS     r0,#1
        0x00002b50:    0780        ..      LSLS     r0,r0,#30
        0x00002b52:    6182        .a      STR      r2,[r0,#0x18]
        0x00002b54:    bd00        ..      POP      {pc}
        0x00002b56:    0000        ..      MOVS     r0,r0
    i.floor
    floor
        0x00002b58:    b5f8        ..      PUSH     {r3-r7,lr}
        0x00002b5a:    004a        J.      LSLS     r2,r1,#1
        0x00002b5c:    4b2b        +K      LDR      r3,[pc,#172] ; [0x2c0c] = 0xfffffc01
        0x00002b5e:    0d52        R.      LSRS     r2,r2,#21
        0x00002b60:    18d6        ..      ADDS     r6,r2,r3
        0x00002b62:    4a2b        +J      LDR      r2,[pc,#172] ; [0x2c10] = 0x8800759c
        0x00002b64:    460c        .F      MOV      r4,r1
        0x00002b66:    4605        .F      MOV      r5,r0
        0x00002b68:    2e14        ..      CMP      r6,#0x14
        0x00002b6a:    da2b        +.      BGE      0x2bc4 ; floor + 108
        0x00002b6c:    2e00        ..      CMP      r6,#0
        0x00002b6e:    da12        ..      BGE      0x2b96 ; floor + 62
        0x00002b70:    4b28        (K      LDR      r3,[pc,#160] ; [0x2c14] = 0x7e37e43c
        0x00002b72:    f7fdfdd1    ....    BL       __aeabi_dadd ; 0x718
        0x00002b76:    2200        ."      MOVS     r2,#0
        0x00002b78:    4613        .F      MOV      r3,r2
        0x00002b7a:    f000f955    ..U.    BL       __aeabi_cdrcmple ; 0x2e28
        0x00002b7e:    d240        @.      BCS      0x2c02 ; floor + 170
        0x00002b80:    2c00        .,      CMP      r4,#0
        0x00002b82:    db02        ..      BLT      0x2b8a ; floor + 50
        0x00002b84:    2400        .$      MOVS     r4,#0
        0x00002b86:    4625        %F      MOV      r5,r4
        0x00002b88:    e03b        ;.      B        0x2c02 ; floor + 170
        0x00002b8a:    0060        `.      LSLS     r0,r4,#1
        0x00002b8c:    0840        @.      LSRS     r0,r0,#1
        0x00002b8e:    4328        (C      ORRS     r0,r0,r5
        0x00002b90:    d037        7.      BEQ      0x2c02 ; floor + 170
        0x00002b92:    4c21        !L      LDR      r4,[pc,#132] ; [0x2c18] = 0xbff00000
        0x00002b94:    e014        ..      B        0x2bc0 ; floor + 104
        0x00002b96:    4f21        !O      LDR      r7,[pc,#132] ; [0x2c1c] = 0xfffff
        0x00002b98:    460b        .F      MOV      r3,r1
        0x00002b9a:    40f7        .@      LSRS     r7,r7,r6
        0x00002b9c:    403b        ;@      ANDS     r3,r3,r7
        0x00002b9e:    432b        +C      ORRS     r3,r3,r5
        0x00002ba0:    d031        1.      BEQ      0x2c06 ; floor + 174
        0x00002ba2:    4b1c        .K      LDR      r3,[pc,#112] ; [0x2c14] = 0x7e37e43c
        0x00002ba4:    f7fdfdb8    ....    BL       __aeabi_dadd ; 0x718
        0x00002ba8:    2200        ."      MOVS     r2,#0
        0x00002baa:    4613        .F      MOV      r3,r2
        0x00002bac:    f000f93c    ..<.    BL       __aeabi_cdrcmple ; 0x2e28
        0x00002bb0:    d227        '.      BCS      0x2c02 ; floor + 170
        0x00002bb2:    2c00        .,      CMP      r4,#0
        0x00002bb4:    da03        ..      BGE      0x2bbe ; floor + 102
        0x00002bb6:    2001        .       MOVS     r0,#1
        0x00002bb8:    0500        ..      LSLS     r0,r0,#20
        0x00002bba:    40f0        .@      LSRS     r0,r0,r6
        0x00002bbc:    1904        ..      ADDS     r4,r0,r4
        0x00002bbe:    43bc        .C      BICS     r4,r4,r7
        0x00002bc0:    2500        .%      MOVS     r5,#0
        0x00002bc2:    e01e        ..      B        0x2c02 ; floor + 170
        0x00002bc4:    2e33        3.      CMP      r6,#0x33
        0x00002bc6:    dc1e        ..      BGT      0x2c06 ; floor + 174
        0x00002bc8:    4633        3F      MOV      r3,r6
        0x00002bca:    2700        .'      MOVS     r7,#0
        0x00002bcc:    3b14        .;      SUBS     r3,r3,#0x14
        0x00002bce:    43ff        .C      MVNS     r7,r7
        0x00002bd0:    40df        .@      LSRS     r7,r7,r3
        0x00002bd2:    4238        8B      TST      r0,r7
        0x00002bd4:    d017        ..      BEQ      0x2c06 ; floor + 174
        0x00002bd6:    4b0f        .K      LDR      r3,[pc,#60] ; [0x2c14] = 0x7e37e43c
        0x00002bd8:    f7fdfdb6    ....    BL       __aeabi_drsub ; 0x748
        0x00002bdc:    2200        ."      MOVS     r2,#0
        0x00002bde:    4613        .F      MOV      r3,r2
        0x00002be0:    f000f922    ..".    BL       __aeabi_cdrcmple ; 0x2e28
        0x00002be4:    d20d        ..      BCS      0x2c02 ; floor + 170
        0x00002be6:    2c00        .,      CMP      r4,#0
        0x00002be8:    da0a        ..      BGE      0x2c00 ; floor + 168
        0x00002bea:    2e14        ..      CMP      r6,#0x14
        0x00002bec:    d00c        ..      BEQ      0x2c08 ; floor + 176
        0x00002bee:    2034        4       MOVS     r0,#0x34
        0x00002bf0:    1b81        ..      SUBS     r1,r0,r6
        0x00002bf2:    2001        .       MOVS     r0,#1
        0x00002bf4:    4088        .@      LSLS     r0,r0,r1
        0x00002bf6:    1940        @.      ADDS     r0,r0,r5
        0x00002bf8:    42a8        .B      CMP      r0,r5
        0x00002bfa:    d200        ..      BCS      0x2bfe ; floor + 166
        0x00002bfc:    1c64        d.      ADDS     r4,r4,#1
        0x00002bfe:    4605        .F      MOV      r5,r0
        0x00002c00:    43bd        .C      BICS     r5,r5,r7
        0x00002c02:    4621        !F      MOV      r1,r4
        0x00002c04:    4628        (F      MOV      r0,r5
        0x00002c06:    bdf8        ..      POP      {r3-r7,pc}
        0x00002c08:    1c64        d.      ADDS     r4,r4,#1
        0x00002c0a:    e7f9        ..      B        0x2c00 ; floor + 168
    $d
        0x00002c0c:    fffffc01    ....    DCD    4294966273
        0x00002c10:    8800759c    .u..    DCD    2281731484
        0x00002c14:    7e37e43c    <.7~    DCD    2117592124
        0x00002c18:    bff00000    ....    DCD    3220176896
        0x00002c1c:    000fffff    ....    DCD    1048575
    $t
    i.int_to_str
    int_to_str
        0x00002c20:    b5f8        ..      PUSH     {r3-r7,lr}
        0x00002c22:    4604        .F      MOV      r4,r0
        0x00002c24:    2000        .       MOVS     r0,#0
        0x00002c26:    9000        ..      STR      r0,[sp,#0]
        0x00002c28:    2600        .&      MOVS     r6,#0
        0x00002c2a:    2700        .'      MOVS     r7,#0
        0x00002c2c:    2c00        .,      CMP      r4,#0
        0x00002c2e:    d106        ..      BNE      0x2c3e ; int_to_str + 30
        0x00002c30:    2030        0       MOVS     r0,#0x30
        0x00002c32:    4926        &I      LDR      r1,[pc,#152] ; [0x2ccc] = 0x20000028
        0x00002c34:    7008        .p      STRB     r0,[r1,#0]
        0x00002c36:    2000        .       MOVS     r0,#0
        0x00002c38:    7048        Hp      STRB     r0,[r1,#1]
        0x00002c3a:    4608        .F      MOV      r0,r1
        0x00002c3c:    bdf8        ..      POP      {r3-r7,pc}
        0x00002c3e:    2001        .       MOVS     r0,#1
        0x00002c40:    07c0        ..      LSLS     r0,r0,#31
        0x00002c42:    4284        .B      CMP      r4,r0
        0x00002c44:    d10e        ..      BNE      0x2c64 ; int_to_str + 68
        0x00002c46:    1c60        `.      ADDS     r0,r4,#1
        0x00002c48:    f7ffffea    ....    BL       int_to_str ; 0x2c20
        0x00002c4c:    4d1f        .M      LDR      r5,[pc,#124] ; [0x2ccc] = 0x20000028
        0x00002c4e:    e000        ..      B        0x2c52 ; int_to_str + 50
        0x00002c50:    1c6d        m.      ADDS     r5,r5,#1
        0x00002c52:    7828        (x      LDRB     r0,[r5,#0]
        0x00002c54:    2800        .(      CMP      r0,#0
        0x00002c56:    d1fb        ..      BNE      0x2c50 ; int_to_str + 48
        0x00002c58:    1e6d        m.      SUBS     r5,r5,#1
        0x00002c5a:    7828        (x      LDRB     r0,[r5,#0]
        0x00002c5c:    1c40        @.      ADDS     r0,r0,#1
        0x00002c5e:    7028        (p      STRB     r0,[r5,#0]
        0x00002c60:    481a        .H      LDR      r0,[pc,#104] ; [0x2ccc] = 0x20000028
        0x00002c62:    e7eb        ..      B        0x2c3c ; int_to_str + 28
        0x00002c64:    2c00        .,      CMP      r4,#0
        0x00002c66:    da08        ..      BGE      0x2c7a ; int_to_str + 90
        0x00002c68:    4264        dB      RSBS     r4,r4,#0
        0x00002c6a:    2001        .       MOVS     r0,#1
        0x00002c6c:    9000        ..      STR      r0,[sp,#0]
        0x00002c6e:    222d        -"      MOVS     r2,#0x2d
        0x00002c70:    4630        0F      MOV      r0,r6
        0x00002c72:    1c76        v.      ADDS     r6,r6,#1
        0x00002c74:    4915        .I      LDR      r1,[pc,#84] ; [0x2ccc] = 0x20000028
        0x00002c76:    540a        .T      STRB     r2,[r1,r0]
        0x00002c78:    1c7f        ..      ADDS     r7,r7,#1
        0x00002c7a:    e00e        ..      B        0x2c9a ; int_to_str + 122
        0x00002c7c:    210a        .!      MOVS     r1,#0xa
        0x00002c7e:    4620         F      MOV      r0,r4
        0x00002c80:    f7fdfaea    ....    BL       __aeabi_idiv ; 0x258
        0x00002c84:    3130        01      ADDS     r1,r1,#0x30
        0x00002c86:    b2ca        ..      UXTB     r2,r1
        0x00002c88:    4630        0F      MOV      r0,r6
        0x00002c8a:    1c76        v.      ADDS     r6,r6,#1
        0x00002c8c:    490f        .I      LDR      r1,[pc,#60] ; [0x2ccc] = 0x20000028
        0x00002c8e:    540a        .T      STRB     r2,[r1,r0]
        0x00002c90:    210a        .!      MOVS     r1,#0xa
        0x00002c92:    4620         F      MOV      r0,r4
        0x00002c94:    f7fdfae0    ....    BL       __aeabi_idiv ; 0x258
        0x00002c98:    4604        .F      MOV      r4,r0
        0x00002c9a:    2c00        .,      CMP      r4,#0
        0x00002c9c:    d1ee        ..      BNE      0x2c7c ; int_to_str + 92
        0x00002c9e:    2200        ."      MOVS     r2,#0
        0x00002ca0:    4630        0F      MOV      r0,r6
        0x00002ca2:    1e76        v.      SUBS     r6,r6,#1
        0x00002ca4:    4909        .I      LDR      r1,[pc,#36] ; [0x2ccc] = 0x20000028
        0x00002ca6:    540a        .T      STRB     r2,[r1,r0]
        0x00002ca8:    e00b        ..      B        0x2cc2 ; int_to_str + 162
        0x00002caa:    4908        .I      LDR      r1,[pc,#32] ; [0x2ccc] = 0x20000028
        0x00002cac:    5d88        .]      LDRB     r0,[r1,r6]
        0x00002cae:    5dca        .]      LDRB     r2,[r1,r7]
        0x00002cb0:    4631        1F      MOV      r1,r6
        0x00002cb2:    1e76        v.      SUBS     r6,r6,#1
        0x00002cb4:    4b05        .K      LDR      r3,[pc,#20] ; [0x2ccc] = 0x20000028
        0x00002cb6:    545a        ZT      STRB     r2,[r3,r1]
        0x00002cb8:    4639        9F      MOV      r1,r7
        0x00002cba:    1c7f        ..      ADDS     r7,r7,#1
        0x00002cbc:    461a        .F      MOV      r2,r3
        0x00002cbe:    5450        PT      STRB     r0,[r2,r1]
        0x00002cc0:    bf00        ..      NOP      
        0x00002cc2:    42b7        .B      CMP      r7,r6
        0x00002cc4:    dbf1        ..      BLT      0x2caa ; int_to_str + 138
        0x00002cc6:    4801        .H      LDR      r0,[pc,#4] ; [0x2ccc] = 0x20000028
        0x00002cc8:    e7b8        ..      B        0x2c3c ; int_to_str + 28
    $d
        0x00002cca:    0000        ..      DCW    0
        0x00002ccc:    20000028    (..     DCD    536870952
    $t
    i.main
    main
        0x00002cd0:    4803        .H      LDR      r0,[pc,#12] ; [0x2ce0] = 0xfffff
        0x00002cd2:    4904        .I      LDR      r1,[pc,#16] ; [0x2ce4] = 0xe000e100
        0x00002cd4:    6008        .`      STR      r0,[r1,#0]
        0x00002cd6:    e002        ..      B        0x2cde ; main + 14
        0x00002cd8:    4803        .H      LDR      r0,[pc,#12] ; [0x2ce8] = 0x3a98
        0x00002cda:    f7fffb3f    ..?.    BL       Delay ; 0x235c
        0x00002cde:    e7fb        ..      B        0x2cd8 ; main + 8
    $d
        0x00002ce0:    000fffff    ....    DCD    1048575
        0x00002ce4:    e000e100    ....    DCD    3758153984
        0x00002ce8:    00003a98    .:..    DCD    15000
    $t
    i.regWrite
    regWrite
        0x00002cec:    b5f1        ..      PUSH     {r0,r4-r7,lr}
        0x00002cee:    b086        ..      SUB      sp,sp,#0x18
        0x00002cf0:    4916        .I      LDR      r1,[pc,#88] ; [0x2d4c] = 0x40400000
        0x00002cf2:    9806        ..      LDR      r0,[sp,#0x18]
        0x00002cf4:    f7fdfdc4    ....    BL       __aeabi_fdiv ; 0x880
        0x00002cf8:    9001        ..      STR      r0,[sp,#4]
        0x00002cfa:    f7fdfd97    ....    BL       __aeabi_f2d ; 0x82c
        0x00002cfe:    4604        .F      MOV      r4,r0
        0x00002d00:    f7ffff2a    ..*.    BL       floor ; 0x2b58
        0x00002d04:    4606        .F      MOV      r6,r0
        0x00002d06:    f7fdfd37    ..7.    BL       __aeabi_d2iz ; 0x778
        0x00002d0a:    9005        ..      STR      r0,[sp,#0x14]
        0x00002d0c:    9805        ..      LDR      r0,[sp,#0x14]
        0x00002d0e:    f7fdfec9    ....    BL       __aeabi_i2f ; 0xaa4
        0x00002d12:    4606        .F      MOV      r6,r0
        0x00002d14:    490d        .I      LDR      r1,[pc,#52] ; [0x2d4c] = 0x40400000
        0x00002d16:    9806        ..      LDR      r0,[sp,#0x18]
        0x00002d18:    f7fdfdb2    ....    BL       __aeabi_fdiv ; 0x880
        0x00002d1c:    4607        .F      MOV      r7,r0
        0x00002d1e:    4631        1F      MOV      r1,r6
        0x00002d20:    f000f97e    ..~.    BL       __aeabi_fsub ; 0x3020
        0x00002d24:    4605        .F      MOV      r5,r0
        0x00002d26:    490a        .I      LDR      r1,[pc,#40] ; [0x2d50] = 0x453b8000
        0x00002d28:    f000f922    ..".    BL       __aeabi_fmul ; 0x2f70
        0x00002d2c:    4604        .F      MOV      r4,r0
        0x00002d2e:    f7fdfe57    ..W.    BL       __aeabi_f2iz ; 0x9e0
        0x00002d32:    9004        ..      STR      r0,[sp,#0x10]
        0x00002d34:    200f        .       MOVS     r0,#0xf
        0x00002d36:    9003        ..      STR      r0,[sp,#0xc]
        0x00002d38:    2000        .       MOVS     r0,#0
        0x00002d3a:    9002        ..      STR      r0,[sp,#8]
        0x00002d3c:    9b03        ..      LDR      r3,[sp,#0xc]
        0x00002d3e:    9a02        ..      LDR      r2,[sp,#8]
        0x00002d40:    9904        ..      LDR      r1,[sp,#0x10]
        0x00002d42:    9805        ..      LDR      r0,[sp,#0x14]
        0x00002d44:    f7fffe44    ..D.    BL       SPIwrite ; 0x29d0
        0x00002d48:    b007        ..      ADD      sp,sp,#0x1c
        0x00002d4a:    bdf0        ..      POP      {r4-r7,pc}
    $d
        0x00002d4c:    40400000    ..@@    DCD    1077936128
        0x00002d50:    453b8000    ..;E    DCD    1161527296
    $t
    i.singleFrequencyRSSI
    singleFrequencyRSSI
        0x00002d54:    b5f0        ..      PUSH     {r4-r7,lr}
        0x00002d56:    b085        ..      SUB      sp,sp,#0x14
        0x00002d58:    4917        .I      LDR      r1,[pc,#92] ; [0x2db8] = 0x40400000
        0x00002d5a:    4818        .H      LDR      r0,[pc,#96] ; [0x2dbc] = 0x20000000
        0x00002d5c:    6800        .h      LDR      r0,[r0,#0]
        0x00002d5e:    f7fdfd8f    ....    BL       __aeabi_fdiv ; 0x880
        0x00002d62:    9000        ..      STR      r0,[sp,#0]
        0x00002d64:    f7fdfd62    ..b.    BL       __aeabi_f2d ; 0x82c
        0x00002d68:    4604        .F      MOV      r4,r0
        0x00002d6a:    f7fffef5    ....    BL       floor ; 0x2b58
        0x00002d6e:    4606        .F      MOV      r6,r0
        0x00002d70:    f7fdfd02    ....    BL       __aeabi_d2iz ; 0x778
        0x00002d74:    9004        ..      STR      r0,[sp,#0x10]
        0x00002d76:    9804        ..      LDR      r0,[sp,#0x10]
        0x00002d78:    f7fdfe94    ....    BL       __aeabi_i2f ; 0xaa4
        0x00002d7c:    4606        .F      MOV      r6,r0
        0x00002d7e:    490e        .I      LDR      r1,[pc,#56] ; [0x2db8] = 0x40400000
        0x00002d80:    480e        .H      LDR      r0,[pc,#56] ; [0x2dbc] = 0x20000000
        0x00002d82:    6800        .h      LDR      r0,[r0,#0]
        0x00002d84:    f7fdfd7c    ..|.    BL       __aeabi_fdiv ; 0x880
        0x00002d88:    4607        .F      MOV      r7,r0
        0x00002d8a:    4631        1F      MOV      r1,r6
        0x00002d8c:    f000f948    ..H.    BL       __aeabi_fsub ; 0x3020
        0x00002d90:    4605        .F      MOV      r5,r0
        0x00002d92:    490b        .I      LDR      r1,[pc,#44] ; [0x2dc0] = 0x453b8000
        0x00002d94:    f000f8ec    ....    BL       __aeabi_fmul ; 0x2f70
        0x00002d98:    4604        .F      MOV      r4,r0
        0x00002d9a:    f7fdfe21    ..!.    BL       __aeabi_f2iz ; 0x9e0
        0x00002d9e:    9003        ..      STR      r0,[sp,#0xc]
        0x00002da0:    200f        .       MOVS     r0,#0xf
        0x00002da2:    9002        ..      STR      r0,[sp,#8]
        0x00002da4:    2000        .       MOVS     r0,#0
        0x00002da6:    9001        ..      STR      r0,[sp,#4]
        0x00002da8:    9b02        ..      LDR      r3,[sp,#8]
        0x00002daa:    9a01        ..      LDR      r2,[sp,#4]
        0x00002dac:    9903        ..      LDR      r1,[sp,#0xc]
        0x00002dae:    9804        ..      LDR      r0,[sp,#0x10]
        0x00002db0:    f7fffe0e    ....    BL       SPIwrite ; 0x29d0
        0x00002db4:    b005        ..      ADD      sp,sp,#0x14
        0x00002db6:    bdf0        ..      POP      {r4-r7,pc}
    $d
        0x00002db8:    40400000    ..@@    DCD    1077936128
        0x00002dbc:    20000000    ...     DCD    536870912
        0x00002dc0:    453b8000    ..;E    DCD    1161527296
    $t
    x$fpl$dleqf
    __aeabi_cdcmple
    _dcmple
        0x00002dc4:    b570        p.      PUSH     {r4-r6,lr}
        0x00002dc6:    2501        .%      MOVS     r5,#1
        0x00002dc8:    000c        ..      MOVS     r4,r1
        0x00002dca:    052d        -.      LSLS     r5,r5,#20
        0x00002dcc:    431c        .C      ORRS     r4,r4,r3
        0x00002dce:    d410        ..      BMI      0x2df2 ; __aeabi_cdcmple + 46
        0x00002dd0:    42ec        .B      CMN      r4,r5
        0x00002dd2:    d406        ..      BMI      0x2de2 ; __aeabi_cdcmple + 30
        0x00002dd4:    42ac        .B      CMP      r4,r5
        0x00002dd6:    d40a        ..      BMI      0x2dee ; __aeabi_cdcmple + 42
        0x00002dd8:    4299        .B      CMP      r1,r3
        0x00002dda:    d000        ..      BEQ      0x2dde ; __aeabi_cdcmple + 26
        0x00002ddc:    bd70        p.      POP      {r4-r6,pc}
        0x00002dde:    4290        .B      CMP      r0,r2
        0x00002de0:    bd70        p.      POP      {r4-r6,pc}
        0x00002de2:    42e9        .B      CMN      r1,r5
        0x00002de4:    d417        ..      BMI      0x2e16 ; __aeabi_cdcmple + 82
        0x00002de6:    42eb        .B      CMN      r3,r5
        0x00002de8:    d415        ..      BMI      0x2e16 ; __aeabi_cdcmple + 82
        0x00002dea:    4299        .B      CMP      r1,r3
        0x00002dec:    bd70        p.      POP      {r4-r6,pc}
        0x00002dee:    4289        .B      CMP      r1,r1
        0x00002df0:    bd70        p.      POP      {r4-r6,pc}
        0x00002df2:    42ec        .B      CMN      r4,r5
        0x00002df4:    d506        ..      BPL      0x2e04 ; __aeabi_cdcmple + 64
        0x00002df6:    42ac        .B      CMP      r4,r5
        0x00002df8:    d5f9        ..      BPL      0x2dee ; __aeabi_cdcmple + 42
        0x00002dfa:    428b        .B      CMP      r3,r1
        0x00002dfc:    d000        ..      BEQ      0x2e00 ; __aeabi_cdcmple + 60
        0x00002dfe:    bd70        p.      POP      {r4-r6,pc}
        0x00002e00:    4282        .B      CMP      r2,r0
        0x00002e02:    bd70        p.      POP      {r4-r6,pc}
        0x00002e04:    006d        m.      LSLS     r5,r5,#1
        0x00002e06:    004c        L.      LSLS     r4,r1,#1
        0x00002e08:    42ec        .B      CMN      r4,r5
        0x00002e0a:    d204        ..      BCS      0x2e16 ; __aeabi_cdcmple + 82
        0x00002e0c:    005c        \.      LSLS     r4,r3,#1
        0x00002e0e:    42ec        .B      CMN      r4,r5
        0x00002e10:    d201        ..      BCS      0x2e16 ; __aeabi_cdcmple + 82
        0x00002e12:    428b        .B      CMP      r3,r1
        0x00002e14:    bd70        p.      POP      {r4-r6,pc}
        0x00002e16:    4c03        .L      LDR      r4,[pc,#12] ; [0x2e24] = 0x4160019
        0x00002e18:    b430        0.      PUSH     {r4,r5}
        0x00002e1a:    f7fdfe4f    ..O.    BL       __fpl_dcmp_InfNaN ; 0xabc
        0x00002e1e:    bc30        0.      POP      {r4,r5}
        0x00002e20:    bd70        p.      POP      {r4-r6,pc}
        0x00002e22:    bf00        ..      NOP      
    $d
        0x00002e24:    04160019    ....    DCD    68550681
    $t
    x$fpl$drleqf
    __aeabi_cdrcmple
    _drcmple
        0x00002e28:    b570        p.      PUSH     {r4-r6,lr}
        0x00002e2a:    2501        .%      MOVS     r5,#1
        0x00002e2c:    001c        ..      MOVS     r4,r3
        0x00002e2e:    052d        -.      LSLS     r5,r5,#20
        0x00002e30:    430c        .C      ORRS     r4,r4,r1
        0x00002e32:    d410        ..      BMI      0x2e56 ; __aeabi_cdrcmple + 46
        0x00002e34:    42ec        .B      CMN      r4,r5
        0x00002e36:    d406        ..      BMI      0x2e46 ; __aeabi_cdrcmple + 30
        0x00002e38:    42ac        .B      CMP      r4,r5
        0x00002e3a:    d40a        ..      BMI      0x2e52 ; __aeabi_cdrcmple + 42
        0x00002e3c:    428b        .B      CMP      r3,r1
        0x00002e3e:    d000        ..      BEQ      0x2e42 ; __aeabi_cdrcmple + 26
        0x00002e40:    bd70        p.      POP      {r4-r6,pc}
        0x00002e42:    4282        .B      CMP      r2,r0
        0x00002e44:    bd70        p.      POP      {r4-r6,pc}
        0x00002e46:    42eb        .B      CMN      r3,r5
        0x00002e48:    d417        ..      BMI      0x2e7a ; __aeabi_cdrcmple + 82
        0x00002e4a:    42e9        .B      CMN      r1,r5
        0x00002e4c:    d415        ..      BMI      0x2e7a ; __aeabi_cdrcmple + 82
        0x00002e4e:    428b        .B      CMP      r3,r1
        0x00002e50:    bd70        p.      POP      {r4-r6,pc}
        0x00002e52:    429b        .B      CMP      r3,r3
        0x00002e54:    bd70        p.      POP      {r4-r6,pc}
        0x00002e56:    42ec        .B      CMN      r4,r5
        0x00002e58:    d506        ..      BPL      0x2e68 ; __aeabi_cdrcmple + 64
        0x00002e5a:    42ac        .B      CMP      r4,r5
        0x00002e5c:    d5f9        ..      BPL      0x2e52 ; __aeabi_cdrcmple + 42
        0x00002e5e:    4299        .B      CMP      r1,r3
        0x00002e60:    d000        ..      BEQ      0x2e64 ; __aeabi_cdrcmple + 60
        0x00002e62:    bd70        p.      POP      {r4-r6,pc}
        0x00002e64:    4290        .B      CMP      r0,r2
        0x00002e66:    bd70        p.      POP      {r4-r6,pc}
        0x00002e68:    006d        m.      LSLS     r5,r5,#1
        0x00002e6a:    005c        \.      LSLS     r4,r3,#1
        0x00002e6c:    42ec        .B      CMN      r4,r5
        0x00002e6e:    d204        ..      BCS      0x2e7a ; __aeabi_cdrcmple + 82
        0x00002e70:    004c        L.      LSLS     r4,r1,#1
        0x00002e72:    42ec        .B      CMN      r4,r5
        0x00002e74:    d201        ..      BCS      0x2e7a ; __aeabi_cdrcmple + 82
        0x00002e76:    4299        .B      CMP      r1,r3
        0x00002e78:    bd70        p.      POP      {r4-r6,pc}
        0x00002e7a:    b40f        ..      PUSH     {r0-r3}
        0x00002e7c:    4c03        .L      LDR      r4,[pc,#12] ; [0x2e8c] = 0x4160019
        0x00002e7e:    bc0c        ..      POP      {r2,r3}
        0x00002e80:    bc03        ..      POP      {r0,r1}
        0x00002e82:    b430        0.      PUSH     {r4,r5}
        0x00002e84:    f7fdfe1a    ....    BL       __fpl_dcmp_InfNaN ; 0xabc
        0x00002e88:    bc30        0.      POP      {r4,r5}
        0x00002e8a:    bd70        p.      POP      {r4-r6,pc}
    $d
        0x00002e8c:    04160019    ....    DCD    68550681
    $t
    x$fpl$fadd
    __aeabi_fadd
    _fadd
        0x00002e90:    b570        p.      PUSH     {r4-r6,lr}
        0x00002e92:    2501        .%      MOVS     r5,#1
        0x00002e94:    0004        ..      MOVS     r4,r0
        0x00002e96:    07ed        ..      LSLS     r5,r5,#31
        0x00002e98:    404c        L@      EORS     r4,r4,r1
        0x00002e9a:    d420         .      BMI      0x2ede ; _fadd1 + 66
    _fadd1
        0x00002e9c:    1a44        D.      SUBS     r4,r0,r1
        0x00002e9e:    d201        ..      BCS      0x2ea4 ; _fadd1 + 8
        0x00002ea0:    1b00        ..      SUBS     r0,r0,r4
        0x00002ea2:    1909        ..      ADDS     r1,r1,r4
        0x00002ea4:    0dc6        ..      LSRS     r6,r0,#23
        0x00002ea6:    004b        K.      LSLS     r3,r1,#1
        0x00002ea8:    b2f2        ..      UXTB     r2,r6
        0x00002eaa:    2aff        .*      CMP      r2,#0xff
        0x00002eac:    d029        ).      BEQ      0x2f02 ; _fadd1 + 102
        0x00002eae:    0e1b        ..      LSRS     r3,r3,#24
        0x00002eb0:    d02c        ,.      BEQ      0x2f0c ; _fadd1 + 112
        0x00002eb2:    0200        ..      LSLS     r0,r0,#8
        0x00002eb4:    020c        ..      LSLS     r4,r1,#8
        0x00002eb6:    1ad3        ..      SUBS     r3,r2,r3
        0x00002eb8:    432c        ,C      ORRS     r4,r4,r5
        0x00002eba:    40dc        .@      LSRS     r4,r4,r3
        0x00002ebc:    4328        (C      ORRS     r0,r0,r5
        0x00002ebe:    1905        ..      ADDS     r5,r0,r4
        0x00002ec0:    d210        ..      BCS      0x2ee4 ; _fadd1 + 72
        0x00002ec2:    0a28        (.      LSRS     r0,r5,#8
        0x00002ec4:    d302        ..      BCC      0x2ecc ; _fadd1 + 48
        0x00002ec6:    1c40        @.      ADDS     r0,r0,#1
        0x00002ec8:    066d        m.      LSLS     r5,r5,#25
        0x00002eca:    d011        ..      BEQ      0x2ef0 ; _fadd1 + 84
        0x00002ecc:    1e76        v.      SUBS     r6,r6,#1
        0x00002ece:    05f6        ..      LSLS     r6,r6,#23
        0x00002ed0:    1980        ..      ADDS     r0,r0,r6
        0x00002ed2:    2aff        .*      CMP      r2,#0xff
        0x00002ed4:    da00        ..      BGE      0x2ed8 ; _fadd1 + 60
        0x00002ed6:    bd70        p.      POP      {r4-r6,pc}
        0x00002ed8:    0dc0        ..      LSRS     r0,r0,#23
        0x00002eda:    05c0        ..      LSLS     r0,r0,#23
        0x00002edc:    bd70        p.      POP      {r4-r6,pc}
        0x00002ede:    4069        i@      EORS     r1,r1,r5
        0x00002ee0:    f000f8a4    ....    BL       _fsub1 ; 0x302c
        0x00002ee4:    2001        .       MOVS     r0,#1
        0x00002ee6:    4305        .C      ORRS     r5,r5,r0
        0x00002ee8:    41c5        .A      RORS     r5,r5,r0
        0x00002eea:    1c52        R.      ADDS     r2,r2,#1
        0x00002eec:    1c76        v.      ADDS     r6,r6,#1
        0x00002eee:    e7e8        ..      B        0x2ec2 ; _fadd1 + 38
        0x00002ef0:    0864        d.      LSRS     r4,r4,#1
        0x00002ef2:    409c        .@      LSLS     r4,r4,r3
        0x00002ef4:    01c9        ..      LSLS     r1,r1,#7
        0x00002ef6:    4061        a@      EORS     r1,r1,r4
        0x00002ef8:    0089        ..      LSLS     r1,r1,#2
        0x00002efa:    d1e7        ..      BNE      0x2ecc ; _fadd1 + 48
        0x00002efc:    2401        .$      MOVS     r4,#1
        0x00002efe:    43a0        .C      BICS     r0,r0,r4
        0x00002f00:    e7e4        ..      B        0x2ecc ; _fadd1 + 48
        0x00002f02:    0e1b        ..      LSRS     r3,r3,#24
        0x00002f04:    0244        D.      LSLS     r4,r0,#9
        0x00002f06:    d000        ..      BEQ      0x2f0a ; _fadd1 + 110
        0x00002f08:    4803        .H      LDR      r0,[pc,#12] ; [0x2f18] = 0x7fc00000
        0x00002f0a:    bd70        p.      POP      {r4-r6,pc}
        0x00002f0c:    2a00        .*      CMP      r2,#0
        0x00002f0e:    d1fc        ..      BNE      0x2f0a ; _fadd1 + 110
        0x00002f10:    0fc0        ..      LSRS     r0,r0,#31
        0x00002f12:    07c0        ..      LSLS     r0,r0,#31
        0x00002f14:    bd70        p.      POP      {r4-r6,pc}
        0x00002f16:    bf00        ..      NOP      
    $d
        0x00002f18:    7fc00000    ....    DCD    2143289344
    $t
    x$fpl$fleqf
    __aeabi_cfcmple
    _fcmple
        0x00002f1c:    2301        .#      MOVS     r3,#1
        0x00002f1e:    0002        ..      MOVS     r2,r0
        0x00002f20:    05db        ..      LSLS     r3,r3,#23
        0x00002f22:    430a        .C      ORRS     r2,r2,r1
        0x00002f24:    d40d        ..      BMI      0x2f42 ; __aeabi_cfcmple + 38
        0x00002f26:    42da        .B      CMN      r2,r3
        0x00002f28:    d403        ..      BMI      0x2f32 ; __aeabi_cfcmple + 22
        0x00002f2a:    429a        .B      CMP      r2,r3
        0x00002f2c:    d407        ..      BMI      0x2f3e ; __aeabi_cfcmple + 34
        0x00002f2e:    4288        .B      CMP      r0,r1
        0x00002f30:    4770        pG      BX       lr
        0x00002f32:    42d8        .B      CMN      r0,r3
        0x00002f34:    d414        ..      BMI      0x2f60 ; __aeabi_cfcmple + 68
        0x00002f36:    42d9        .B      CMN      r1,r3
        0x00002f38:    d412        ..      BMI      0x2f60 ; __aeabi_cfcmple + 68
        0x00002f3a:    4288        .B      CMP      r0,r1
        0x00002f3c:    4770        pG      BX       lr
        0x00002f3e:    4280        .B      CMP      r0,r0
        0x00002f40:    4770        pG      BX       lr
        0x00002f42:    42da        .B      CMN      r2,r3
        0x00002f44:    d503        ..      BPL      0x2f4e ; __aeabi_cfcmple + 50
        0x00002f46:    429a        .B      CMP      r2,r3
        0x00002f48:    d5f9        ..      BPL      0x2f3e ; __aeabi_cfcmple + 34
        0x00002f4a:    4281        .B      CMP      r1,r0
        0x00002f4c:    4770        pG      BX       lr
        0x00002f4e:    005b        [.      LSLS     r3,r3,#1
        0x00002f50:    0042        B.      LSLS     r2,r0,#1
        0x00002f52:    42da        .B      CMN      r2,r3
        0x00002f54:    d204        ..      BCS      0x2f60 ; __aeabi_cfcmple + 68
        0x00002f56:    004a        J.      LSLS     r2,r1,#1
        0x00002f58:    42da        .B      CMN      r2,r3
        0x00002f5a:    d201        ..      BCS      0x2f60 ; __aeabi_cfcmple + 68
        0x00002f5c:    4281        .B      CMP      r1,r0
        0x00002f5e:    4770        pG      BX       lr
        0x00002f60:    b510        ..      PUSH     {r4,lr}
        0x00002f62:    4a02        .J      LDR      r2,[pc,#8] ; [0x2f6c] = 0x4160009
        0x00002f64:    f7fdfdf2    ....    BL       __fpl_fcmp_InfNaN ; 0xb4c
        0x00002f68:    bd10        ..      POP      {r4,pc}
        0x00002f6a:    bf00        ..      NOP      
    $d
        0x00002f6c:    04160009    ....    DCD    68550665
    $t
    x$fpl$fmul
    __aeabi_fmul
    _fmul
        0x00002f70:    b570        p.      PUSH     {r4-r6,lr}
        0x00002f72:    0042        B.      LSLS     r2,r0,#1
        0x00002f74:    4164        dA      ADCS     r4,r4,r4
        0x00002f76:    004b        K.      LSLS     r3,r1,#1
        0x00002f78:    415c        \A      ADCS     r4,r4,r3
        0x00002f7a:    0e12        ..      LSRS     r2,r2,#24
        0x00002f7c:    d039        9.      BEQ      0x2ff2 ; __aeabi_fmul + 130
        0x00002f7e:    0e1b        ..      LSRS     r3,r3,#24
        0x00002f80:    d038        8.      BEQ      0x2ff4 ; __aeabi_fmul + 132
        0x00002f82:    2aff        .*      CMP      r2,#0xff
        0x00002f84:    d03c        <.      BEQ      0x3000 ; __aeabi_fmul + 144
        0x00002f86:    2bff        .+      CMP      r3,#0xff
        0x00002f88:    d03a        :.      BEQ      0x3000 ; __aeabi_fmul + 144
        0x00002f8a:    0240        @.      LSLS     r0,r0,#9
        0x00002f8c:    0249        I.      LSLS     r1,r1,#9
        0x00002f8e:    0a40        @.      LSRS     r0,r0,#9
        0x00002f90:    0a49        I.      LSRS     r1,r1,#9
        0x00002f92:    0006        ..      MOVS     r6,r0
        0x00002f94:    1845        E.      ADDS     r5,r0,r1
        0x00002f96:    434e        NC      MULS     r6,r1,r6
        0x00002f98:    0a00        ..      LSRS     r0,r0,#8
        0x00002f9a:    0a09        ..      LSRS     r1,r1,#8
        0x00002f9c:    18d2        ..      ADDS     r2,r2,r3
        0x00002f9e:    4348        HC      MULS     r0,r1,r0
        0x00002fa0:    01ed        ..      LSLS     r5,r5,#7
        0x00002fa2:    3a7f        .:      SUBS     r2,r2,#0x7f
        0x00002fa4:    0401        ..      LSLS     r1,r0,#16
        0x00002fa6:    1a73        s.      SUBS     r3,r6,r1
        0x00002fa8:    1940        @.      ADDS     r0,r0,r5
        0x00002faa:    0c19        ..      LSRS     r1,r3,#16
        0x00002fac:    1843        C.      ADDS     r3,r0,r1
        0x00002fae:    0f99        ..      LSRS     r1,r3,#30
        0x00002fb0:    d004        ..      BEQ      0x2fbc ; __aeabi_fmul + 76
        0x00002fb2:    2101        .!      MOVS     r1,#1
        0x00002fb4:    085b        [.      LSRS     r3,r3,#1
        0x00002fb6:    0749        I.      LSLS     r1,r1,#29
        0x00002fb8:    1a5b        [.      SUBS     r3,r3,r1
        0x00002fba:    1c52        R.      ADDS     r2,r2,#1
        0x00002fbc:    09d8        ..      LSRS     r0,r3,#7
        0x00002fbe:    d304        ..      BCC      0x2fca ; __aeabi_fmul + 90
        0x00002fc0:    1c40        @.      ADDS     r0,r0,#1
        0x00002fc2:    03f5        ..      LSLS     r5,r6,#15
        0x00002fc4:    d101        ..      BNE      0x2fca ; __aeabi_fmul + 90
        0x00002fc6:    069d        ..      LSLS     r5,r3,#26
        0x00002fc8:    d007        ..      BEQ      0x2fda ; __aeabi_fmul + 106
        0x00002fca:    2aff        .*      CMP      r2,#0xff
        0x00002fcc:    d208        ..      BCS      0x2fe0 ; __aeabi_fmul + 112
        0x00002fce:    05d5        ..      LSLS     r5,r2,#23
        0x00002fd0:    d006        ..      BEQ      0x2fe0 ; __aeabi_fmul + 112
        0x00002fd2:    07e4        ..      LSLS     r4,r4,#31
        0x00002fd4:    4320         C      ORRS     r0,r0,r4
        0x00002fd6:    1940        @.      ADDS     r0,r0,r5
        0x00002fd8:    bd70        p.      POP      {r4-r6,pc}
        0x00002fda:    2501        .%      MOVS     r5,#1
        0x00002fdc:    43a8        .C      BICS     r0,r0,r5
        0x00002fde:    e7f4        ..      B        0x2fca ; __aeabi_fmul + 90
        0x00002fe0:    2a00        .*      CMP      r2,#0
        0x00002fe2:    dc01        ..      BGT      0x2fe8 ; __aeabi_fmul + 120
        0x00002fe4:    07e0        ..      LSLS     r0,r4,#31
        0x00002fe6:    bd70        p.      POP      {r4-r6,pc}
        0x00002fe8:    0224        $.      LSLS     r4,r4,#8
        0x00002fea:    20ff        .       MOVS     r0,#0xff
        0x00002fec:    4320         C      ORRS     r0,r0,r4
        0x00002fee:    05c0        ..      LSLS     r0,r0,#23
        0x00002ff0:    bd70        p.      POP      {r4-r6,pc}
        0x00002ff2:    0e1b        ..      LSRS     r3,r3,#24
        0x00002ff4:    2aff        .*      CMP      r2,#0xff
        0x00002ff6:    d003        ..      BEQ      0x3000 ; __aeabi_fmul + 144
        0x00002ff8:    2bff        .+      CMP      r3,#0xff
        0x00002ffa:    d001        ..      BEQ      0x3000 ; __aeabi_fmul + 144
        0x00002ffc:    07e0        ..      LSLS     r0,r4,#31
        0x00002ffe:    bd70        p.      POP      {r4-r6,pc}
        0x00003000:    26ff        .&      MOVS     r6,#0xff
        0x00003002:    0045        E.      LSLS     r5,r0,#1
        0x00003004:    0636        6.      LSLS     r6,r6,#24
        0x00003006:    42b5        .B      CMP      r5,r6
        0x00003008:    d806        ..      BHI      0x3018 ; __aeabi_fmul + 168
        0x0000300a:    004d        M.      LSLS     r5,r1,#1
        0x0000300c:    42b5        .B      CMP      r5,r6
        0x0000300e:    d803        ..      BHI      0x3018 ; __aeabi_fmul + 168
        0x00003010:    18d2        ..      ADDS     r2,r2,r3
        0x00003012:    2aff        .*      CMP      r2,#0xff
        0x00003014:    d000        ..      BEQ      0x3018 ; __aeabi_fmul + 168
        0x00003016:    e7e7        ..      B        0x2fe8 ; __aeabi_fmul + 120
        0x00003018:    4800        .H      LDR      r0,[pc,#0] ; [0x301c] = 0x7fc00000
        0x0000301a:    bd70        p.      POP      {r4-r6,pc}
    $d
        0x0000301c:    7fc00000    ....    DCD    2143289344
    $t
    x$fpl$fsub
    __aeabi_fsub
    _fsub
        0x00003020:    b570        p.      PUSH     {r4-r6,lr}
        0x00003022:    2501        .%      MOVS     r5,#1
        0x00003024:    0004        ..      MOVS     r4,r0
        0x00003026:    07ed        ..      LSLS     r5,r5,#31
        0x00003028:    404c        L@      EORS     r4,r4,r1
        0x0000302a:    d422        ".      BMI      0x3072 ; _fsub1 + 70
    _fsub1
        0x0000302c:    1a44        D.      SUBS     r4,r0,r1
        0x0000302e:    d202        ..      BCS      0x3036 ; _fsub1 + 10
        0x00003030:    406c        l@      EORS     r4,r4,r5
        0x00003032:    1b00        ..      SUBS     r0,r0,r4
        0x00003034:    1909        ..      ADDS     r1,r1,r4
        0x00003036:    0dc6        ..      LSRS     r6,r0,#23
        0x00003038:    004b        K.      LSLS     r3,r1,#1
        0x0000303a:    b2f2        ..      UXTB     r2,r6
        0x0000303c:    2aff        .*      CMP      r2,#0xff
        0x0000303e:    d04b        K.      BEQ      0x30d8 ; _fsub1 + 172
        0x00003040:    0e1b        ..      LSRS     r3,r3,#24
        0x00003042:    d050        P.      BEQ      0x30e6 ; _fsub1 + 186
        0x00003044:    0200        ..      LSLS     r0,r0,#8
        0x00003046:    020c        ..      LSLS     r4,r1,#8
        0x00003048:    1ad3        ..      SUBS     r3,r2,r3
        0x0000304a:    432c        ,C      ORRS     r4,r4,r5
        0x0000304c:    40dc        .@      LSRS     r4,r4,r3
        0x0000304e:    43a8        .C      BICS     r0,r0,r5
        0x00003050:    1b05        ..      SUBS     r5,r0,r4
        0x00003052:    d505        ..      BPL      0x3060 ; _fsub1 + 52
        0x00003054:    00ad        ..      LSLS     r5,r5,#2
        0x00003056:    d319        ..      BCC      0x308c ; _fsub1 + 96
        0x00003058:    086d        m.      LSRS     r5,r5,#1
        0x0000305a:    1e76        v.      SUBS     r6,r6,#1
        0x0000305c:    1e52        R.      SUBS     r2,r2,#1
        0x0000305e:    d037        7.      BEQ      0x30d0 ; _fsub1 + 164
        0x00003060:    05f6        ..      LSLS     r6,r6,#23
        0x00003062:    0a28        (.      LSRS     r0,r5,#8
        0x00003064:    d201        ..      BCS      0x306a ; _fsub1 + 62
        0x00003066:    1980        ..      ADDS     r0,r0,r6
        0x00003068:    bd70        p.      POP      {r4-r6,pc}
        0x0000306a:    4170        pA      ADCS     r0,r0,r6
        0x0000306c:    066d        m.      LSLS     r5,r5,#25
        0x0000306e:    d003        ..      BEQ      0x3078 ; _fsub1 + 76
        0x00003070:    bd70        p.      POP      {r4-r6,pc}
        0x00003072:    4069        i@      EORS     r1,r1,r5
        0x00003074:    f7ffff12    ....    BL       _fadd1 ; 0x2e9c
        0x00003078:    409c        .@      LSLS     r4,r4,r3
        0x0000307a:    0209        ..      LSLS     r1,r1,#8
        0x0000307c:    4061        a@      EORS     r1,r1,r4
        0x0000307e:    0049        I.      LSLS     r1,r1,#1
        0x00003080:    d001        ..      BEQ      0x3086 ; _fsub1 + 90
        0x00003082:    1e40        @.      SUBS     r0,r0,#1
        0x00003084:    bd70        p.      POP      {r4-r6,pc}
        0x00003086:    2401        .$      MOVS     r4,#1
        0x00003088:    43a0        .C      BICS     r0,r0,r4
        0x0000308a:    bd70        p.      POP      {r4-r6,pc}
        0x0000308c:    086d        m.      LSRS     r5,r5,#1
        0x0000308e:    d01d        ..      BEQ      0x30cc ; _fsub1 + 160
        0x00003090:    2001        .       MOVS     r0,#1
        0x00003092:    0c2b        +.      LSRS     r3,r5,#16
        0x00003094:    d101        ..      BNE      0x309a ; _fsub1 + 110
        0x00003096:    042d        -.      LSLS     r5,r5,#16
        0x00003098:    3010        .0      ADDS     r0,r0,#0x10
        0x0000309a:    0e2b        +.      LSRS     r3,r5,#24
        0x0000309c:    d101        ..      BNE      0x30a2 ; _fsub1 + 118
        0x0000309e:    022d        -.      LSLS     r5,r5,#8
        0x000030a0:    3008        .0      ADDS     r0,r0,#8
        0x000030a2:    0f2b        +.      LSRS     r3,r5,#28
        0x000030a4:    d101        ..      BNE      0x30aa ; _fsub1 + 126
        0x000030a6:    012d        -.      LSLS     r5,r5,#4
        0x000030a8:    1d00        ..      ADDS     r0,r0,#4
        0x000030aa:    0fab        ..      LSRS     r3,r5,#30
        0x000030ac:    d101        ..      BNE      0x30b2 ; _fsub1 + 134
        0x000030ae:    00ad        ..      LSLS     r5,r5,#2
        0x000030b0:    1c80        ..      ADDS     r0,r0,#2
        0x000030b2:    0feb        ..      LSRS     r3,r5,#31
        0x000030b4:    d101        ..      BNE      0x30ba ; _fsub1 + 142
        0x000030b6:    006d        m.      LSLS     r5,r5,#1
        0x000030b8:    1c40        @.      ADDS     r0,r0,#1
        0x000030ba:    006d        m.      LSLS     r5,r5,#1
        0x000030bc:    1a36        6.      SUBS     r6,r6,r0
        0x000030be:    1a12        ..      SUBS     r2,r2,r0
        0x000030c0:    0a68        h.      LSRS     r0,r5,#9
        0x000030c2:    05f5        ..      LSLS     r5,r6,#23
        0x000030c4:    1940        @.      ADDS     r0,r0,r5
        0x000030c6:    2a01        .*      CMP      r2,#1
        0x000030c8:    db02        ..      BLT      0x30d0 ; _fsub1 + 164
        0x000030ca:    bd70        p.      POP      {r4-r6,pc}
        0x000030cc:    2000        .       MOVS     r0,#0
        0x000030ce:    bd70        p.      POP      {r4-r6,pc}
        0x000030d0:    36c0        .6      ADDS     r6,r6,#0xc0
        0x000030d2:    0a30        0.      LSRS     r0,r6,#8
        0x000030d4:    07c0        ..      LSLS     r0,r0,#31
        0x000030d6:    bd70        p.      POP      {r4-r6,pc}
        0x000030d8:    0e1b        ..      LSRS     r3,r3,#24
        0x000030da:    0244        D.      LSLS     r4,r0,#9
        0x000030dc:    d101        ..      BNE      0x30e2 ; _fsub1 + 182
        0x000030de:    2bff        .+      CMP      r3,#0xff
        0x000030e0:    d100        ..      BNE      0x30e4 ; _fsub1 + 184
        0x000030e2:    4802        .H      LDR      r0,[pc,#8] ; [0x30ec] = 0x7fc00000
        0x000030e4:    bd70        p.      POP      {r4-r6,pc}
        0x000030e6:    2a00        .*      CMP      r2,#0
        0x000030e8:    d0f0        ..      BEQ      0x30cc ; _fsub1 + 160
        0x000030ea:    bd70        p.      POP      {r4-r6,pc}
    $d
        0x000030ec:    7fc00000    ....    DCD    2143289344
    $d.realdata
    .constdata
    fdiv_tab
    x$fpl$usenofp
    __I$use$fp
        0x000030f0:    84838281    ....    DCD    2223211137
        0x000030f4:    88878685    ....    DCD    2290583173
        0x000030f8:    8d8c8b89    ....    DCD    2374798217
        0x000030fc:    92918f8e    ....    DCD    2459013006
        0x00003100:    97969593    ....    DCD    2543228307
        0x00003104:    9d9c9a99    ....    DCD    2644286105
        0x00003108:    a3a2a09f    ....    DCD    2745344159
        0x0000310c:    aaa8a7a5    ....    DCD    2863179685
        0x00003110:    b2b0aeac    ....    DCD    2997923500
        0x00003114:    b9b7b5b3    ....    DCD    3115824563
        0x00003118:    c2c0bebc    ....    DCD    3267411644
        0x0000311c:    ccc9c7c5    ....    DCD    3435775941
        0x00003120:    d7d4d1ce    ....    DCD    3621048782
        0x00003124:    e2dfdcd9    ....    DCD    3806321881
        0x00003128:    f0ece9e6    ....    DCD    4042058214
        0x0000312c:    fefaf7f3    ....    DCD    4277860339
    Region$$Table$$Base
        0x00003130:    00003150    P1..    DCD    12624
        0x00003134:    20000000    ...     DCD    536870912
        0x00003138:    00000028    (...    DCD    40
        0x0000313c:    000000d4    ....    DCD    212
        0x00003140:    00003178    x1..    DCD    12664
        0x00003144:    20000028    (..     DCD    536870952
        0x00003148:    00002aa8    .*..    DCD    10920
        0x0000314c:    000000f0    ....    DCD    240
    Region$$Table$$Limit

====================================

** Section #2

    Name        : RW_IRAM1
    Type        : SHT_PROGBITS (0x00000001)
    Flags       : SHF_ALLOC + SHF_WRITE (0x00000003)
    Addr        : 0x20000000
    File Offset : 12676 (0x3184)
    Size        : 40 bytes (0x28)
    Link        : SHN_UNDEF
    Info        : 0
    Alignment   : 4
    Entry Size  : 0


====================================

** Section #3

    Name        : RW_IRAM1
    Type        : SHT_NOBITS (0x00000008)
    Flags       : SHF_ALLOC + SHF_WRITE (0x00000003)
    Addr        : 0x20000028
    File Offset : 12716 (0x31ac)
    Size        : 10920 bytes (0x2aa8)
    Link        : SHN_UNDEF
    Info        : 0
    Alignment   : 16
    Entry Size  : 0


====================================

** Section #4

    Name        : .debug_abbrev
    Type        : SHT_PROGBITS (0x00000001)
    Flags       : None (0x00000000)
    Addr        : 0x00000000
    File Offset : 12716 (0x31ac)
    Size        : 1476 bytes (0x5c4)
    Link        : SHN_UNDEF
    Info        : 0
    Alignment   : 1
    Entry Size  : 0


====================================

** Section #5

    Name        : .debug_frame
    Type        : SHT_PROGBITS (0x00000001)
    Flags       : None (0x00000000)
    Addr        : 0x00000000
    File Offset : 14192 (0x3770)
    Size        : 2872 bytes (0xb38)
    Link        : SHN_UNDEF
    Info        : 0
    Alignment   : 1
    Entry Size  : 0


====================================

** Section #6

    Name        : .debug_info
    Type        : SHT_PROGBITS (0x00000001)
    Flags       : None (0x00000000)
    Addr        : 0x00000000
    File Offset : 17064 (0x42a8)
    Size        : 11120 bytes (0x2b70)
    Link        : SHN_UNDEF
    Info        : 0
    Alignment   : 1
    Entry Size  : 0


====================================

** Section #7

    Name        : .debug_line
    Type        : SHT_PROGBITS (0x00000001)
    Flags       : None (0x00000000)
    Addr        : 0x00000000
    File Offset : 28184 (0x6e18)
    Size        : 7856 bytes (0x1eb0)
    Link        : SHN_UNDEF
    Info        : 0
    Alignment   : 1
    Entry Size  : 0


====================================

** Section #8

    Name        : .debug_loc
    Type        : SHT_PROGBITS (0x00000001)
    Flags       : None (0x00000000)
    Addr        : 0x00000000
    File Offset : 36040 (0x8cc8)
    Size        : 1764 bytes (0x6e4)
    Link        : SHN_UNDEF
    Info        : 0
    Alignment   : 1
    Entry Size  : 0


====================================

** Section #9

    Name        : .debug_macinfo
    Type        : SHT_PROGBITS (0x00000001)
    Flags       : None (0x00000000)
    Addr        : 0x00000000
    File Offset : 37804 (0x93ac)
    Size        : 2672 bytes (0xa70)
    Link        : SHN_UNDEF
    Info        : 0
    Alignment   : 1
    Entry Size  : 0


====================================

** Section #10

    Name        : .debug_pubnames
    Type        : SHT_PROGBITS (0x00000001)
    Flags       : None (0x00000000)
    Addr        : 0x00000000
    File Offset : 40476 (0x9e1c)
    Size        : 1648 bytes (0x670)
    Link        : SHN_UNDEF
    Info        : 0
    Alignment   : 1
    Entry Size  : 0


====================================

** Section #11

    Name        : .symtab
    Type        : SHT_SYMTAB (0x00000002)
    Flags       : None (0x00000000)
    Addr        : 0x00000000
    File Offset : 42124 (0xa48c)
    Size        : 8544 bytes (0x2160)
    Link        : Section 12 (.strtab)
    Info        : Last local symbol no = 337
    Alignment   : 4
    Entry Size  : 16


====================================

** Section #12

    Name        : .strtab
    Type        : SHT_STRTAB (0x00000003)
    Flags       : None (0x00000000)
    Addr        : 0x00000000
    File Offset : 50668 (0xc5ec)
    Size        : 6176 bytes (0x1820)
    Link        : SHN_UNDEF
    Info        : 0
    Alignment   : 1
    Entry Size  : 0


====================================

** Section #13

    Name        : .note
    Type        : SHT_NOTE (0x00000007)
    Flags       : None (0x00000000)
    Addr        : 0x00000000
    File Offset : 56844 (0xde0c)
    Size        : 28 bytes (0x1c)
    Link        : SHN_UNDEF
    Info        : 0
    Alignment   : 4
    Entry Size  : 0

        Section     Segment
    ====================================

              1           0
              2           0
              3           0

====================================

** Section #14

    Name        : .comment
    Type        : SHT_PROGBITS (0x00000001)
    Flags       : None (0x00000000)
    Addr        : 0x00000000
    File Offset : 56872 (0xde28)
    Size        : 2560 bytes (0xa00)
    Link        : SHN_UNDEF
    Info        : 0
    Alignment   : 1
    Entry Size  : 0

    Component: ARM Compiler 5.06 update 7 (build 960) Tool: armlink [4d3601]
    ArmLink --strict --callgraph --load_addr_map_info --map --symbols --xref --diag_suppress=9931 --cpu=Cortex-M0 --list=.\Listings\MMC.map --output=.\MMC.axf --scatter=.\MMC.sct --info=summarysizes,sizes,totals,unused,veneers

    D:\Keil_v5\ARM\ARMCC\Bin\..\lib\armlib\c_p.l
    D:\Keil_v5\ARM\ARMCC\Bin\..\lib\armlib\fz_ps.l
    D:\Keil_v5\ARM\ARMCC\Bin\..\lib\armlib\h_p.l
    D:\Keil_v5\ARM\ARMCC\Bin\..\lib\armlib\m_ps.l
    D:\Keil_v5\ARM\ARMCC\Bin\..\lib\armlib\vfpsupport.l
    Input Comments:
    
    auxiliary.o
    
    Component: ARM Compiler 5.06 update 7 (build 960) Tool: ArmCC [4d365d]
    ArmCC --split_sections --debug -c -o.\auxiliary.o --depend=.\auxiliary.d --cpu=Cortex-M0 --apcs=interwork -O0 --diag_suppress=9931 -IC:\Users\JefferyLi\AppData\Local\Arm\Packs\Keil\V2M-MPS2_CMx_BSP\1.8.0\Device\CMSDK_CM0\Include -D__EVAL -D__UVISION_VERSION=536 -DCMSDK_CM0 --omf_browse=.\auxiliary.crf ..\src\auxiliary.c
    
    code_def.o
    
    Component: ARM Compiler 5.06 update 7 (build 960) Tool: ArmCC [4d365d]
    ArmCC --split_sections --debug -c -o.\code_def.o --depend=.\code_def.d --cpu=Cortex-M0 --apcs=interwork -O0 --diag_suppress=9931 -IC:\Users\JefferyLi\AppData\Local\Arm\Packs\Keil\V2M-MPS2_CMx_BSP\1.8.0\Device\CMSDK_CM0\Include -D__EVAL -D__UVISION_VERSION=536 -DCMSDK_CM0 --omf_browse=.\code_def.crf ..\src\code_def.c
    
    main.o
    
    Component: ARM Compiler 5.06 update 7 (build 960) Tool: ArmCC [4d365d]
    ArmCC --split_sections --debug -c -o.\main.o --depend=.\main.d --cpu=Cortex-M0 --apcs=interwork -O0 --diag_suppress=9931 -IC:\Users\JefferyLi\AppData\Local\Arm\Packs\Keil\V2M-MPS2_CMx_BSP\1.8.0\Device\CMSDK_CM0\Include -D__EVAL -D__UVISION_VERSION=536 -DCMSDK_CM0 --omf_browse=.\main.crf ..\src\main.c
    
    startup_cmsdk_cm0.o
    
    Component: ARM Compiler 5.06 update 7 (build 960) Tool: armasm [4d35fa]
    ArmAsm --debug --xref --diag_suppress=9931 --cpu=Cortex-M0 --apcs=interwork --depend=.\startup_cmsdk_cm0.d  -IC:\Users\JefferyLi\AppData\Local\Arm\Packs\Keil\V2M-MPS2_CMx_BSP\1.8.0\Device\CMSDK_CM0\Include --predefine="__EVAL SETA 1" --pre
    
    
    channelselection_control.o
    
    Component: ARM Compiler 5.06 update 7 (build 960) Tool: ArmCC [4d365d]
    ArmCC --split_sections --debug -c -o.\channelselection_control.o --depend=.\channelselection_control.d --cpu=Cortex-M0 --apcs=interwork -O0 --diag_suppress=9931 -IC:\Users\JefferyLi\AppData\Local\Arm\Packs\Keil\V2M-MPS2_CMx_BSP\1.8.0\Device\CMSDK_CM0\Include -D__EVAL -D__UVISION_VERSION=536 -DCMSDK_CM0 --omf_browse=.\channelselection_control.crf ..\src\channelSelection_control.c
    
    
    
    

====================================

** Section #15

    Name        : .shstrtab
    Type        : SHT_STRTAB (0x00000003)
    Flags       : None (0x00000000)
    Addr        : 0x00000000
    File Offset : 59432 (0xe828)
    Size        : 156 bytes (0x9c)
    Link        : SHN_UNDEF
    Info        : 0
    Alignment   : 1
    Entry Size  : 0


====================================

